
ctarget:     file format elf64-x86-64


Disassembly of section .init:

0000000000400c48 <_init>:
  400c48:	48 83 ec 08          	sub    $0x8,%rsp
  400c4c:	48 8b 05 a5 33 20 00 	mov    0x2033a5(%rip),%rax        # 603ff8 <__gmon_start__>
  400c53:	48 85 c0             	test   %rax,%rax
  400c56:	74 02                	je     400c5a <_init+0x12>
  400c58:	ff d0                	callq  *%rax
  400c5a:	48 83 c4 08          	add    $0x8,%rsp
  400c5e:	c3                   	retq   

Disassembly of section .plt:

0000000000400c60 <.plt>:
  400c60:	ff 35 a2 33 20 00    	pushq  0x2033a2(%rip)        # 604008 <_GLOBAL_OFFSET_TABLE_+0x8>
  400c66:	ff 25 a4 33 20 00    	jmpq   *0x2033a4(%rip)        # 604010 <_GLOBAL_OFFSET_TABLE_+0x10>
  400c6c:	0f 1f 40 00          	nopl   0x0(%rax)

0000000000400c70 <strcasecmp@plt>:
  400c70:	ff 25 a2 33 20 00    	jmpq   *0x2033a2(%rip)        # 604018 <strcasecmp@GLIBC_2.2.5>
  400c76:	68 00 00 00 00       	pushq  $0x0
  400c7b:	e9 e0 ff ff ff       	jmpq   400c60 <.plt>

0000000000400c80 <__errno_location@plt>:
  400c80:	ff 25 9a 33 20 00    	jmpq   *0x20339a(%rip)        # 604020 <__errno_location@GLIBC_2.2.5>
  400c86:	68 01 00 00 00       	pushq  $0x1
  400c8b:	e9 d0 ff ff ff       	jmpq   400c60 <.plt>

0000000000400c90 <srandom@plt>:
  400c90:	ff 25 92 33 20 00    	jmpq   *0x203392(%rip)        # 604028 <srandom@GLIBC_2.2.5>
  400c96:	68 02 00 00 00       	pushq  $0x2
  400c9b:	e9 c0 ff ff ff       	jmpq   400c60 <.plt>

0000000000400ca0 <strncmp@plt>:
  400ca0:	ff 25 8a 33 20 00    	jmpq   *0x20338a(%rip)        # 604030 <strncmp@GLIBC_2.2.5>
  400ca6:	68 03 00 00 00       	pushq  $0x3
  400cab:	e9 b0 ff ff ff       	jmpq   400c60 <.plt>

0000000000400cb0 <strcpy@plt>:
  400cb0:	ff 25 82 33 20 00    	jmpq   *0x203382(%rip)        # 604038 <strcpy@GLIBC_2.2.5>
  400cb6:	68 04 00 00 00       	pushq  $0x4
  400cbb:	e9 a0 ff ff ff       	jmpq   400c60 <.plt>

0000000000400cc0 <puts@plt>:
  400cc0:	ff 25 7a 33 20 00    	jmpq   *0x20337a(%rip)        # 604040 <puts@GLIBC_2.2.5>
  400cc6:	68 05 00 00 00       	pushq  $0x5
  400ccb:	e9 90 ff ff ff       	jmpq   400c60 <.plt>

0000000000400cd0 <write@plt>:
  400cd0:	ff 25 72 33 20 00    	jmpq   *0x203372(%rip)        # 604048 <write@GLIBC_2.2.5>
  400cd6:	68 06 00 00 00       	pushq  $0x6
  400cdb:	e9 80 ff ff ff       	jmpq   400c60 <.plt>

0000000000400ce0 <__stack_chk_fail@plt>:
  400ce0:	ff 25 6a 33 20 00    	jmpq   *0x20336a(%rip)        # 604050 <__stack_chk_fail@GLIBC_2.4>
  400ce6:	68 07 00 00 00       	pushq  $0x7
  400ceb:	e9 70 ff ff ff       	jmpq   400c60 <.plt>

0000000000400cf0 <mmap@plt>:
  400cf0:	ff 25 62 33 20 00    	jmpq   *0x203362(%rip)        # 604058 <mmap@GLIBC_2.2.5>
  400cf6:	68 08 00 00 00       	pushq  $0x8
  400cfb:	e9 60 ff ff ff       	jmpq   400c60 <.plt>

0000000000400d00 <memset@plt>:
  400d00:	ff 25 5a 33 20 00    	jmpq   *0x20335a(%rip)        # 604060 <memset@GLIBC_2.2.5>
  400d06:	68 09 00 00 00       	pushq  $0x9
  400d0b:	e9 50 ff ff ff       	jmpq   400c60 <.plt>

0000000000400d10 <alarm@plt>:
  400d10:	ff 25 52 33 20 00    	jmpq   *0x203352(%rip)        # 604068 <alarm@GLIBC_2.2.5>
  400d16:	68 0a 00 00 00       	pushq  $0xa
  400d1b:	e9 40 ff ff ff       	jmpq   400c60 <.plt>

0000000000400d20 <close@plt>:
  400d20:	ff 25 4a 33 20 00    	jmpq   *0x20334a(%rip)        # 604070 <close@GLIBC_2.2.5>
  400d26:	68 0b 00 00 00       	pushq  $0xb
  400d2b:	e9 30 ff ff ff       	jmpq   400c60 <.plt>

0000000000400d30 <read@plt>:
  400d30:	ff 25 42 33 20 00    	jmpq   *0x203342(%rip)        # 604078 <read@GLIBC_2.2.5>
  400d36:	68 0c 00 00 00       	pushq  $0xc
  400d3b:	e9 20 ff ff ff       	jmpq   400c60 <.plt>

0000000000400d40 <signal@plt>:
  400d40:	ff 25 3a 33 20 00    	jmpq   *0x20333a(%rip)        # 604080 <signal@GLIBC_2.2.5>
  400d46:	68 0d 00 00 00       	pushq  $0xd
  400d4b:	e9 10 ff ff ff       	jmpq   400c60 <.plt>

0000000000400d50 <gethostbyname@plt>:
  400d50:	ff 25 32 33 20 00    	jmpq   *0x203332(%rip)        # 604088 <gethostbyname@GLIBC_2.2.5>
  400d56:	68 0e 00 00 00       	pushq  $0xe
  400d5b:	e9 00 ff ff ff       	jmpq   400c60 <.plt>

0000000000400d60 <__memmove_chk@plt>:
  400d60:	ff 25 2a 33 20 00    	jmpq   *0x20332a(%rip)        # 604090 <__memmove_chk@GLIBC_2.3.4>
  400d66:	68 0f 00 00 00       	pushq  $0xf
  400d6b:	e9 f0 fe ff ff       	jmpq   400c60 <.plt>

0000000000400d70 <strtol@plt>:
  400d70:	ff 25 22 33 20 00    	jmpq   *0x203322(%rip)        # 604098 <strtol@GLIBC_2.2.5>
  400d76:	68 10 00 00 00       	pushq  $0x10
  400d7b:	e9 e0 fe ff ff       	jmpq   400c60 <.plt>

0000000000400d80 <memcpy@plt>:
  400d80:	ff 25 1a 33 20 00    	jmpq   *0x20331a(%rip)        # 6040a0 <memcpy@GLIBC_2.14>
  400d86:	68 11 00 00 00       	pushq  $0x11
  400d8b:	e9 d0 fe ff ff       	jmpq   400c60 <.plt>

0000000000400d90 <time@plt>:
  400d90:	ff 25 12 33 20 00    	jmpq   *0x203312(%rip)        # 6040a8 <time@GLIBC_2.2.5>
  400d96:	68 12 00 00 00       	pushq  $0x12
  400d9b:	e9 c0 fe ff ff       	jmpq   400c60 <.plt>

0000000000400da0 <random@plt>:
  400da0:	ff 25 0a 33 20 00    	jmpq   *0x20330a(%rip)        # 6040b0 <random@GLIBC_2.2.5>
  400da6:	68 13 00 00 00       	pushq  $0x13
  400dab:	e9 b0 fe ff ff       	jmpq   400c60 <.plt>

0000000000400db0 <_IO_getc@plt>:
  400db0:	ff 25 02 33 20 00    	jmpq   *0x203302(%rip)        # 6040b8 <_IO_getc@GLIBC_2.2.5>
  400db6:	68 14 00 00 00       	pushq  $0x14
  400dbb:	e9 a0 fe ff ff       	jmpq   400c60 <.plt>

0000000000400dc0 <__isoc99_sscanf@plt>:
  400dc0:	ff 25 fa 32 20 00    	jmpq   *0x2032fa(%rip)        # 6040c0 <__isoc99_sscanf@GLIBC_2.7>
  400dc6:	68 15 00 00 00       	pushq  $0x15
  400dcb:	e9 90 fe ff ff       	jmpq   400c60 <.plt>

0000000000400dd0 <munmap@plt>:
  400dd0:	ff 25 f2 32 20 00    	jmpq   *0x2032f2(%rip)        # 6040c8 <munmap@GLIBC_2.2.5>
  400dd6:	68 16 00 00 00       	pushq  $0x16
  400ddb:	e9 80 fe ff ff       	jmpq   400c60 <.plt>

0000000000400de0 <__printf_chk@plt>:
  400de0:	ff 25 ea 32 20 00    	jmpq   *0x2032ea(%rip)        # 6040d0 <__printf_chk@GLIBC_2.3.4>
  400de6:	68 17 00 00 00       	pushq  $0x17
  400deb:	e9 70 fe ff ff       	jmpq   400c60 <.plt>

0000000000400df0 <fopen@plt>:
  400df0:	ff 25 e2 32 20 00    	jmpq   *0x2032e2(%rip)        # 6040d8 <fopen@GLIBC_2.2.5>
  400df6:	68 18 00 00 00       	pushq  $0x18
  400dfb:	e9 60 fe ff ff       	jmpq   400c60 <.plt>

0000000000400e00 <getopt@plt>:
  400e00:	ff 25 da 32 20 00    	jmpq   *0x2032da(%rip)        # 6040e0 <getopt@GLIBC_2.2.5>
  400e06:	68 19 00 00 00       	pushq  $0x19
  400e0b:	e9 50 fe ff ff       	jmpq   400c60 <.plt>

0000000000400e10 <strtoul@plt>:
  400e10:	ff 25 d2 32 20 00    	jmpq   *0x2032d2(%rip)        # 6040e8 <strtoul@GLIBC_2.2.5>
  400e16:	68 1a 00 00 00       	pushq  $0x1a
  400e1b:	e9 40 fe ff ff       	jmpq   400c60 <.plt>

0000000000400e20 <gethostname@plt>:
  400e20:	ff 25 ca 32 20 00    	jmpq   *0x2032ca(%rip)        # 6040f0 <gethostname@GLIBC_2.2.5>
  400e26:	68 1b 00 00 00       	pushq  $0x1b
  400e2b:	e9 30 fe ff ff       	jmpq   400c60 <.plt>

0000000000400e30 <exit@plt>:
  400e30:	ff 25 c2 32 20 00    	jmpq   *0x2032c2(%rip)        # 6040f8 <exit@GLIBC_2.2.5>
  400e36:	68 1c 00 00 00       	pushq  $0x1c
  400e3b:	e9 20 fe ff ff       	jmpq   400c60 <.plt>

0000000000400e40 <connect@plt>:
  400e40:	ff 25 ba 32 20 00    	jmpq   *0x2032ba(%rip)        # 604100 <connect@GLIBC_2.2.5>
  400e46:	68 1d 00 00 00       	pushq  $0x1d
  400e4b:	e9 10 fe ff ff       	jmpq   400c60 <.plt>

0000000000400e50 <__fprintf_chk@plt>:
  400e50:	ff 25 b2 32 20 00    	jmpq   *0x2032b2(%rip)        # 604108 <__fprintf_chk@GLIBC_2.3.4>
  400e56:	68 1e 00 00 00       	pushq  $0x1e
  400e5b:	e9 00 fe ff ff       	jmpq   400c60 <.plt>

0000000000400e60 <__sprintf_chk@plt>:
  400e60:	ff 25 aa 32 20 00    	jmpq   *0x2032aa(%rip)        # 604110 <__sprintf_chk@GLIBC_2.3.4>
  400e66:	68 1f 00 00 00       	pushq  $0x1f
  400e6b:	e9 f0 fd ff ff       	jmpq   400c60 <.plt>

0000000000400e70 <socket@plt>:
  400e70:	ff 25 a2 32 20 00    	jmpq   *0x2032a2(%rip)        # 604118 <socket@GLIBC_2.2.5>
  400e76:	68 20 00 00 00       	pushq  $0x20
  400e7b:	e9 e0 fd ff ff       	jmpq   400c60 <.plt>

Disassembly of section .text:

0000000000400e80 <_start>:
  400e80:	31 ed                	xor    %ebp,%ebp
  400e82:	49 89 d1             	mov    %rdx,%r9
  400e85:	5e                   	pop    %rsi
  400e86:	48 89 e2             	mov    %rsp,%rdx
  400e89:	48 83 e4 f0          	and    $0xfffffffffffffff0,%rsp
  400e8d:	50                   	push   %rax
  400e8e:	54                   	push   %rsp
  400e8f:	49 c7 c0 c0 2e 40 00 	mov    $0x402ec0,%r8
  400e96:	48 c7 c1 50 2e 40 00 	mov    $0x402e50,%rcx
  400e9d:	48 c7 c7 95 11 40 00 	mov    $0x401195,%rdi
  400ea4:	ff 15 46 31 20 00    	callq  *0x203146(%rip)        # 603ff0 <__libc_start_main@GLIBC_2.2.5>
  400eaa:	f4                   	hlt    
  400eab:	0f 1f 44 00 00       	nopl   0x0(%rax,%rax,1)

0000000000400eb0 <_dl_relocate_static_pie>:
  400eb0:	f3 c3                	repz retq 
  400eb2:	66 2e 0f 1f 84 00 00 	nopw   %cs:0x0(%rax,%rax,1)
  400eb9:	00 00 00 
  400ebc:	0f 1f 40 00          	nopl   0x0(%rax)

0000000000400ec0 <deregister_tm_clones>:
  400ec0:	b8 97 44 60 00       	mov    $0x604497,%eax
  400ec5:	55                   	push   %rbp
  400ec6:	48 2d 90 44 60 00    	sub    $0x604490,%rax
  400ecc:	48 83 f8 0e          	cmp    $0xe,%rax
  400ed0:	48 89 e5             	mov    %rsp,%rbp
  400ed3:	76 1b                	jbe    400ef0 <deregister_tm_clones+0x30>
  400ed5:	b8 00 00 00 00       	mov    $0x0,%eax
  400eda:	48 85 c0             	test   %rax,%rax
  400edd:	74 11                	je     400ef0 <deregister_tm_clones+0x30>
  400edf:	5d                   	pop    %rbp
  400ee0:	bf 90 44 60 00       	mov    $0x604490,%edi
  400ee5:	ff e0                	jmpq   *%rax
  400ee7:	66 0f 1f 84 00 00 00 	nopw   0x0(%rax,%rax,1)
  400eee:	00 00 
  400ef0:	5d                   	pop    %rbp
  400ef1:	c3                   	retq   
  400ef2:	0f 1f 40 00          	nopl   0x0(%rax)
  400ef6:	66 2e 0f 1f 84 00 00 	nopw   %cs:0x0(%rax,%rax,1)
  400efd:	00 00 00 

0000000000400f00 <register_tm_clones>:
  400f00:	be 90 44 60 00       	mov    $0x604490,%esi
  400f05:	55                   	push   %rbp
  400f06:	48 81 ee 90 44 60 00 	sub    $0x604490,%rsi
  400f0d:	48 c1 fe 03          	sar    $0x3,%rsi
  400f11:	48 89 e5             	mov    %rsp,%rbp
  400f14:	48 89 f0             	mov    %rsi,%rax
  400f17:	48 c1 e8 3f          	shr    $0x3f,%rax
  400f1b:	48 01 c6             	add    %rax,%rsi
  400f1e:	48 d1 fe             	sar    %rsi
  400f21:	74 15                	je     400f38 <register_tm_clones+0x38>
  400f23:	b8 00 00 00 00       	mov    $0x0,%eax
  400f28:	48 85 c0             	test   %rax,%rax
  400f2b:	74 0b                	je     400f38 <register_tm_clones+0x38>
  400f2d:	5d                   	pop    %rbp
  400f2e:	bf 90 44 60 00       	mov    $0x604490,%edi
  400f33:	ff e0                	jmpq   *%rax
  400f35:	0f 1f 00             	nopl   (%rax)
  400f38:	5d                   	pop    %rbp
  400f39:	c3                   	retq   
  400f3a:	66 0f 1f 44 00 00    	nopw   0x0(%rax,%rax,1)

0000000000400f40 <__do_global_dtors_aux>:
  400f40:	80 3d 81 35 20 00 00 	cmpb   $0x0,0x203581(%rip)        # 6044c8 <completed.7667>
  400f47:	75 11                	jne    400f5a <__do_global_dtors_aux+0x1a>
  400f49:	55                   	push   %rbp
  400f4a:	48 89 e5             	mov    %rsp,%rbp
  400f4d:	e8 6e ff ff ff       	callq  400ec0 <deregister_tm_clones>
  400f52:	5d                   	pop    %rbp
  400f53:	c6 05 6e 35 20 00 01 	movb   $0x1,0x20356e(%rip)        # 6044c8 <completed.7667>
  400f5a:	f3 c3                	repz retq 
  400f5c:	0f 1f 40 00          	nopl   0x0(%rax)

0000000000400f60 <frame_dummy>:
  400f60:	bf 18 3e 60 00       	mov    $0x603e18,%edi
  400f65:	48 83 3f 00          	cmpq   $0x0,(%rdi)
  400f69:	75 05                	jne    400f70 <frame_dummy+0x10>
  400f6b:	eb 93                	jmp    400f00 <register_tm_clones>
  400f6d:	0f 1f 00             	nopl   (%rax)
  400f70:	b8 00 00 00 00       	mov    $0x0,%eax
  400f75:	48 85 c0             	test   %rax,%rax
  400f78:	74 f1                	je     400f6b <frame_dummy+0xb>
  400f7a:	55                   	push   %rbp
  400f7b:	48 89 e5             	mov    %rsp,%rbp
  400f7e:	ff d0                	callq  *%rax
  400f80:	5d                   	pop    %rbp
  400f81:	e9 7a ff ff ff       	jmpq   400f00 <register_tm_clones>

0000000000400f86 <usage>:
  400f86:	48 83 ec 08          	sub    $0x8,%rsp
  400f8a:	48 89 fa             	mov    %rdi,%rdx
  400f8d:	83 3d 74 35 20 00 00 	cmpl   $0x0,0x203574(%rip)        # 604508 <is_checker>
  400f94:	74 3e                	je     400fd4 <usage+0x4e>
  400f96:	be d8 2e 40 00       	mov    $0x402ed8,%esi
  400f9b:	bf 01 00 00 00       	mov    $0x1,%edi
  400fa0:	b8 00 00 00 00       	mov    $0x0,%eax
  400fa5:	e8 36 fe ff ff       	callq  400de0 <__printf_chk@plt>
  400faa:	bf 10 2f 40 00       	mov    $0x402f10,%edi
  400faf:	e8 0c fd ff ff       	callq  400cc0 <puts@plt>
  400fb4:	bf 88 30 40 00       	mov    $0x403088,%edi
  400fb9:	e8 02 fd ff ff       	callq  400cc0 <puts@plt>
  400fbe:	bf 38 2f 40 00       	mov    $0x402f38,%edi
  400fc3:	e8 f8 fc ff ff       	callq  400cc0 <puts@plt>
  400fc8:	bf a2 30 40 00       	mov    $0x4030a2,%edi
  400fcd:	e8 ee fc ff ff       	callq  400cc0 <puts@plt>
  400fd2:	eb 32                	jmp    401006 <usage+0x80>
  400fd4:	be be 30 40 00       	mov    $0x4030be,%esi
  400fd9:	bf 01 00 00 00       	mov    $0x1,%edi
  400fde:	b8 00 00 00 00       	mov    $0x0,%eax
  400fe3:	e8 f8 fd ff ff       	callq  400de0 <__printf_chk@plt>
  400fe8:	bf 60 2f 40 00       	mov    $0x402f60,%edi
  400fed:	e8 ce fc ff ff       	callq  400cc0 <puts@plt>
  400ff2:	bf 88 2f 40 00       	mov    $0x402f88,%edi
  400ff7:	e8 c4 fc ff ff       	callq  400cc0 <puts@plt>
  400ffc:	bf dc 30 40 00       	mov    $0x4030dc,%edi
  401001:	e8 ba fc ff ff       	callq  400cc0 <puts@plt>
  401006:	bf 00 00 00 00       	mov    $0x0,%edi
  40100b:	e8 20 fe ff ff       	callq  400e30 <exit@plt>

0000000000401010 <initialize_target>:
  401010:	55                   	push   %rbp
  401011:	53                   	push   %rbx
  401012:	48 81 ec 18 21 00 00 	sub    $0x2118,%rsp
  401019:	89 f5                	mov    %esi,%ebp
  40101b:	64 48 8b 04 25 28 00 	mov    %fs:0x28,%rax
  401022:	00 00 
  401024:	48 89 84 24 08 21 00 	mov    %rax,0x2108(%rsp)
  40102b:	00 
  40102c:	31 c0                	xor    %eax,%eax
  40102e:	89 3d c4 34 20 00    	mov    %edi,0x2034c4(%rip)        # 6044f8 <check_level>
  401034:	8b 3d 0e 31 20 00    	mov    0x20310e(%rip),%edi        # 604148 <target_id>
  40103a:	e8 ec 1d 00 00       	callq  402e2b <gencookie>
  40103f:	89 05 bf 34 20 00    	mov    %eax,0x2034bf(%rip)        # 604504 <cookie>
  401045:	89 c7                	mov    %eax,%edi
  401047:	e8 df 1d 00 00       	callq  402e2b <gencookie>
  40104c:	89 05 ae 34 20 00    	mov    %eax,0x2034ae(%rip)        # 604500 <authkey>
  401052:	8b 05 f0 30 20 00    	mov    0x2030f0(%rip),%eax        # 604148 <target_id>
  401058:	8d 78 01             	lea    0x1(%rax),%edi
  40105b:	e8 30 fc ff ff       	callq  400c90 <srandom@plt>
  401060:	e8 3b fd ff ff       	callq  400da0 <random@plt>
  401065:	89 c7                	mov    %eax,%edi
  401067:	e8 03 03 00 00       	callq  40136f <scramble>
  40106c:	89 c3                	mov    %eax,%ebx
  40106e:	85 ed                	test   %ebp,%ebp
  401070:	74 18                	je     40108a <initialize_target+0x7a>
  401072:	bf 00 00 00 00       	mov    $0x0,%edi
  401077:	e8 14 fd ff ff       	callq  400d90 <time@plt>
  40107c:	89 c7                	mov    %eax,%edi
  40107e:	e8 0d fc ff ff       	callq  400c90 <srandom@plt>
  401083:	e8 18 fd ff ff       	callq  400da0 <random@plt>
  401088:	eb 05                	jmp    40108f <initialize_target+0x7f>
  40108a:	b8 00 00 00 00       	mov    $0x0,%eax
  40108f:	01 c3                	add    %eax,%ebx
  401091:	0f b7 db             	movzwl %bx,%ebx
  401094:	8d 04 dd 00 01 00 00 	lea    0x100(,%rbx,8),%eax
  40109b:	89 c0                	mov    %eax,%eax
  40109d:	48 89 05 dc 33 20 00 	mov    %rax,0x2033dc(%rip)        # 604480 <buf_offset>
  4010a4:	c6 05 7d 40 20 00 63 	movb   $0x63,0x20407d(%rip)        # 605128 <target_prefix>
  4010ab:	83 3d d6 33 20 00 00 	cmpl   $0x0,0x2033d6(%rip)        # 604488 <notify>
  4010b2:	0f 84 bb 00 00 00    	je     401173 <initialize_target+0x163>
  4010b8:	83 3d 49 34 20 00 00 	cmpl   $0x0,0x203449(%rip)        # 604508 <is_checker>
  4010bf:	0f 85 ae 00 00 00    	jne    401173 <initialize_target+0x163>
  4010c5:	be 00 01 00 00       	mov    $0x100,%esi
  4010ca:	48 89 e7             	mov    %rsp,%rdi
  4010cd:	e8 4e fd ff ff       	callq  400e20 <gethostname@plt>
  4010d2:	85 c0                	test   %eax,%eax
  4010d4:	74 25                	je     4010fb <initialize_target+0xeb>
  4010d6:	bf b8 2f 40 00       	mov    $0x402fb8,%edi
  4010db:	e8 e0 fb ff ff       	callq  400cc0 <puts@plt>
  4010e0:	bf 08 00 00 00       	mov    $0x8,%edi
  4010e5:	e8 46 fd ff ff       	callq  400e30 <exit@plt>
  4010ea:	48 89 e6             	mov    %rsp,%rsi
  4010ed:	e8 7e fb ff ff       	callq  400c70 <strcasecmp@plt>
  4010f2:	85 c0                	test   %eax,%eax
  4010f4:	74 21                	je     401117 <initialize_target+0x107>
  4010f6:	83 c3 01             	add    $0x1,%ebx
  4010f9:	eb 05                	jmp    401100 <initialize_target+0xf0>
  4010fb:	bb 00 00 00 00       	mov    $0x0,%ebx
  401100:	48 63 c3             	movslq %ebx,%rax
  401103:	48 8b 3c c5 60 41 60 	mov    0x604160(,%rax,8),%rdi
  40110a:	00 
  40110b:	48 85 ff             	test   %rdi,%rdi
  40110e:	75 da                	jne    4010ea <initialize_target+0xda>
  401110:	b8 00 00 00 00       	mov    $0x0,%eax
  401115:	eb 05                	jmp    40111c <initialize_target+0x10c>
  401117:	b8 01 00 00 00       	mov    $0x1,%eax
  40111c:	85 c0                	test   %eax,%eax
  40111e:	75 1c                	jne    40113c <initialize_target+0x12c>
  401120:	48 89 e2             	mov    %rsp,%rdx
  401123:	be f0 2f 40 00       	mov    $0x402ff0,%esi
  401128:	bf 01 00 00 00       	mov    $0x1,%edi
  40112d:	e8 ae fc ff ff       	callq  400de0 <__printf_chk@plt>
  401132:	bf 08 00 00 00       	mov    $0x8,%edi
  401137:	e8 f4 fc ff ff       	callq  400e30 <exit@plt>
  40113c:	48 8d bc 24 00 01 00 	lea    0x100(%rsp),%rdi
  401143:	00 
  401144:	e8 4c 1a 00 00       	callq  402b95 <init_driver>
  401149:	85 c0                	test   %eax,%eax
  40114b:	79 26                	jns    401173 <initialize_target+0x163>
  40114d:	48 8d 94 24 00 01 00 	lea    0x100(%rsp),%rdx
  401154:	00 
  401155:	be 30 30 40 00       	mov    $0x403030,%esi
  40115a:	bf 01 00 00 00       	mov    $0x1,%edi
  40115f:	b8 00 00 00 00       	mov    $0x0,%eax
  401164:	e8 77 fc ff ff       	callq  400de0 <__printf_chk@plt>
  401169:	bf 08 00 00 00       	mov    $0x8,%edi
  40116e:	e8 bd fc ff ff       	callq  400e30 <exit@plt>
  401173:	48 8b 84 24 08 21 00 	mov    0x2108(%rsp),%rax
  40117a:	00 
  40117b:	64 48 33 04 25 28 00 	xor    %fs:0x28,%rax
  401182:	00 00 
  401184:	74 05                	je     40118b <initialize_target+0x17b>
  401186:	e8 55 fb ff ff       	callq  400ce0 <__stack_chk_fail@plt>
  40118b:	48 81 c4 18 21 00 00 	add    $0x2118,%rsp
  401192:	5b                   	pop    %rbx
  401193:	5d                   	pop    %rbp
  401194:	c3                   	retq   

0000000000401195 <main>:
  401195:	41 56                	push   %r14
  401197:	41 55                	push   %r13
  401199:	41 54                	push   %r12
  40119b:	55                   	push   %rbp
  40119c:	53                   	push   %rbx
  40119d:	41 89 fc             	mov    %edi,%r12d
  4011a0:	48 89 f3             	mov    %rsi,%rbx
  4011a3:	be 06 1f 40 00       	mov    $0x401f06,%esi
  4011a8:	bf 0b 00 00 00       	mov    $0xb,%edi
  4011ad:	e8 8e fb ff ff       	callq  400d40 <signal@plt>
  4011b2:	be b8 1e 40 00       	mov    $0x401eb8,%esi
  4011b7:	bf 07 00 00 00       	mov    $0x7,%edi
  4011bc:	e8 7f fb ff ff       	callq  400d40 <signal@plt>
  4011c1:	be 54 1f 40 00       	mov    $0x401f54,%esi
  4011c6:	bf 04 00 00 00       	mov    $0x4,%edi
  4011cb:	e8 70 fb ff ff       	callq  400d40 <signal@plt>
  4011d0:	83 3d 31 33 20 00 00 	cmpl   $0x0,0x203331(%rip)        # 604508 <is_checker>
  4011d7:	74 20                	je     4011f9 <main+0x64>
  4011d9:	be a2 1f 40 00       	mov    $0x401fa2,%esi
  4011de:	bf 0e 00 00 00       	mov    $0xe,%edi
  4011e3:	e8 58 fb ff ff       	callq  400d40 <signal@plt>
  4011e8:	bf 05 00 00 00       	mov    $0x5,%edi
  4011ed:	e8 1e fb ff ff       	callq  400d10 <alarm@plt>
  4011f2:	bd fa 30 40 00       	mov    $0x4030fa,%ebp
  4011f7:	eb 05                	jmp    4011fe <main+0x69>
  4011f9:	bd f5 30 40 00       	mov    $0x4030f5,%ebp
  4011fe:	48 8b 05 9b 32 20 00 	mov    0x20329b(%rip),%rax        # 6044a0 <stdin@@GLIBC_2.2.5>
  401205:	48 89 05 e4 32 20 00 	mov    %rax,0x2032e4(%rip)        # 6044f0 <infile>
  40120c:	41 bd 00 00 00 00    	mov    $0x0,%r13d
  401212:	41 be 00 00 00 00    	mov    $0x0,%r14d
  401218:	e9 c6 00 00 00       	jmpq   4012e3 <main+0x14e>
  40121d:	83 e8 61             	sub    $0x61,%eax
  401220:	3c 10                	cmp    $0x10,%al
  401222:	0f 87 9c 00 00 00    	ja     4012c4 <main+0x12f>
  401228:	0f b6 c0             	movzbl %al,%eax
  40122b:	ff 24 c5 40 31 40 00 	jmpq   *0x403140(,%rax,8)
  401232:	48 8b 3b             	mov    (%rbx),%rdi
  401235:	e8 4c fd ff ff       	callq  400f86 <usage>
  40123a:	be d5 33 40 00       	mov    $0x4033d5,%esi
  40123f:	48 8b 3d 62 32 20 00 	mov    0x203262(%rip),%rdi        # 6044a8 <optarg@@GLIBC_2.2.5>
  401246:	e8 a5 fb ff ff       	callq  400df0 <fopen@plt>
  40124b:	48 89 05 9e 32 20 00 	mov    %rax,0x20329e(%rip)        # 6044f0 <infile>
  401252:	48 85 c0             	test   %rax,%rax
  401255:	0f 85 88 00 00 00    	jne    4012e3 <main+0x14e>
  40125b:	48 8b 0d 46 32 20 00 	mov    0x203246(%rip),%rcx        # 6044a8 <optarg@@GLIBC_2.2.5>
  401262:	ba 02 31 40 00       	mov    $0x403102,%edx
  401267:	be 01 00 00 00       	mov    $0x1,%esi
  40126c:	48 8b 3d 4d 32 20 00 	mov    0x20324d(%rip),%rdi        # 6044c0 <stderr@@GLIBC_2.2.5>
  401273:	e8 d8 fb ff ff       	callq  400e50 <__fprintf_chk@plt>
  401278:	b8 01 00 00 00       	mov    $0x1,%eax
  40127d:	e9 e4 00 00 00       	jmpq   401366 <main+0x1d1>
  401282:	ba 10 00 00 00       	mov    $0x10,%edx
  401287:	be 00 00 00 00       	mov    $0x0,%esi
  40128c:	48 8b 3d 15 32 20 00 	mov    0x203215(%rip),%rdi        # 6044a8 <optarg@@GLIBC_2.2.5>
  401293:	e8 78 fb ff ff       	callq  400e10 <strtoul@plt>
  401298:	41 89 c6             	mov    %eax,%r14d
  40129b:	eb 46                	jmp    4012e3 <main+0x14e>
  40129d:	ba 0a 00 00 00       	mov    $0xa,%edx
  4012a2:	be 00 00 00 00       	mov    $0x0,%esi
  4012a7:	48 8b 3d fa 31 20 00 	mov    0x2031fa(%rip),%rdi        # 6044a8 <optarg@@GLIBC_2.2.5>
  4012ae:	e8 bd fa ff ff       	callq  400d70 <strtol@plt>
  4012b3:	41 89 c5             	mov    %eax,%r13d
  4012b6:	eb 2b                	jmp    4012e3 <main+0x14e>
  4012b8:	c7 05 c6 31 20 00 00 	movl   $0x0,0x2031c6(%rip)        # 604488 <notify>
  4012bf:	00 00 00 
  4012c2:	eb 1f                	jmp    4012e3 <main+0x14e>
  4012c4:	0f be d2             	movsbl %dl,%edx
  4012c7:	be 1f 31 40 00       	mov    $0x40311f,%esi
  4012cc:	bf 01 00 00 00       	mov    $0x1,%edi
  4012d1:	b8 00 00 00 00       	mov    $0x0,%eax
  4012d6:	e8 05 fb ff ff       	callq  400de0 <__printf_chk@plt>
  4012db:	48 8b 3b             	mov    (%rbx),%rdi
  4012de:	e8 a3 fc ff ff       	callq  400f86 <usage>
  4012e3:	48 89 ea             	mov    %rbp,%rdx
  4012e6:	48 89 de             	mov    %rbx,%rsi
  4012e9:	44 89 e7             	mov    %r12d,%edi
  4012ec:	e8 0f fb ff ff       	callq  400e00 <getopt@plt>
  4012f1:	89 c2                	mov    %eax,%edx
  4012f3:	3c ff                	cmp    $0xff,%al
  4012f5:	0f 85 22 ff ff ff    	jne    40121d <main+0x88>
  4012fb:	be 00 00 00 00       	mov    $0x0,%esi
  401300:	44 89 ef             	mov    %r13d,%edi
  401303:	e8 08 fd ff ff       	callq  401010 <initialize_target>
  401308:	83 3d f9 31 20 00 00 	cmpl   $0x0,0x2031f9(%rip)        # 604508 <is_checker>
  40130f:	74 2a                	je     40133b <main+0x1a6>
  401311:	44 3b 35 e8 31 20 00 	cmp    0x2031e8(%rip),%r14d        # 604500 <authkey>
  401318:	74 21                	je     40133b <main+0x1a6>
  40131a:	44 89 f2             	mov    %r14d,%edx
  40131d:	be 58 30 40 00       	mov    $0x403058,%esi
  401322:	bf 01 00 00 00       	mov    $0x1,%edi
  401327:	b8 00 00 00 00       	mov    $0x0,%eax
  40132c:	e8 af fa ff ff       	callq  400de0 <__printf_chk@plt>
  401331:	b8 00 00 00 00       	mov    $0x0,%eax
  401336:	e8 19 08 00 00       	callq  401b54 <check_fail>
  40133b:	8b 15 c3 31 20 00    	mov    0x2031c3(%rip),%edx        # 604504 <cookie>
  401341:	be 32 31 40 00       	mov    $0x403132,%esi
  401346:	bf 01 00 00 00       	mov    $0x1,%edi
  40134b:	b8 00 00 00 00       	mov    $0x0,%eax
  401350:	e8 8b fa ff ff       	callq  400de0 <__printf_chk@plt>
  401355:	48 8b 3d 24 31 20 00 	mov    0x203124(%rip),%rdi        # 604480 <buf_offset>
  40135c:	e8 41 0d 00 00       	callq  4020a2 <stable_launch>
  401361:	b8 00 00 00 00       	mov    $0x0,%eax
  401366:	5b                   	pop    %rbx
  401367:	5d                   	pop    %rbp
  401368:	41 5c                	pop    %r12
  40136a:	41 5d                	pop    %r13
  40136c:	41 5e                	pop    %r14
  40136e:	c3                   	retq   

000000000040136f <scramble>:
  40136f:	48 83 ec 38          	sub    $0x38,%rsp
  401373:	64 48 8b 04 25 28 00 	mov    %fs:0x28,%rax
  40137a:	00 00 
  40137c:	48 89 44 24 28       	mov    %rax,0x28(%rsp)
  401381:	31 c0                	xor    %eax,%eax
  401383:	eb 10                	jmp    401395 <scramble+0x26>
  401385:	69 d0 fd ed 00 00    	imul   $0xedfd,%eax,%edx
  40138b:	01 fa                	add    %edi,%edx
  40138d:	89 c1                	mov    %eax,%ecx
  40138f:	89 14 8c             	mov    %edx,(%rsp,%rcx,4)
  401392:	83 c0 01             	add    $0x1,%eax
  401395:	83 f8 09             	cmp    $0x9,%eax
  401398:	76 eb                	jbe    401385 <scramble+0x16>
  40139a:	8b 44 24 08          	mov    0x8(%rsp),%eax
  40139e:	69 c0 89 aa 00 00    	imul   $0xaa89,%eax,%eax
  4013a4:	89 44 24 08          	mov    %eax,0x8(%rsp)
  4013a8:	8b 44 24 0c          	mov    0xc(%rsp),%eax
  4013ac:	69 c0 c3 bf 00 00    	imul   $0xbfc3,%eax,%eax
  4013b2:	89 44 24 0c          	mov    %eax,0xc(%rsp)
  4013b6:	8b 44 24 0c          	mov    0xc(%rsp),%eax
  4013ba:	69 c0 77 1b 00 00    	imul   $0x1b77,%eax,%eax
  4013c0:	89 44 24 0c          	mov    %eax,0xc(%rsp)
  4013c4:	8b 44 24 20          	mov    0x20(%rsp),%eax
  4013c8:	69 c0 af b2 00 00    	imul   $0xb2af,%eax,%eax
  4013ce:	89 44 24 20          	mov    %eax,0x20(%rsp)
  4013d2:	8b 44 24 14          	mov    0x14(%rsp),%eax
  4013d6:	69 c0 8d 31 00 00    	imul   $0x318d,%eax,%eax
  4013dc:	89 44 24 14          	mov    %eax,0x14(%rsp)
  4013e0:	8b 44 24 04          	mov    0x4(%rsp),%eax
  4013e4:	69 c0 4f 12 00 00    	imul   $0x124f,%eax,%eax
  4013ea:	89 44 24 04          	mov    %eax,0x4(%rsp)
  4013ee:	8b 44 24 08          	mov    0x8(%rsp),%eax
  4013f2:	69 c0 24 4e 00 00    	imul   $0x4e24,%eax,%eax
  4013f8:	89 44 24 08          	mov    %eax,0x8(%rsp)
  4013fc:	8b 44 24 10          	mov    0x10(%rsp),%eax
  401400:	69 c0 8d 3b 00 00    	imul   $0x3b8d,%eax,%eax
  401406:	89 44 24 10          	mov    %eax,0x10(%rsp)
  40140a:	8b 44 24 0c          	mov    0xc(%rsp),%eax
  40140e:	69 c0 fd 53 00 00    	imul   $0x53fd,%eax,%eax
  401414:	89 44 24 0c          	mov    %eax,0xc(%rsp)
  401418:	8b 44 24 10          	mov    0x10(%rsp),%eax
  40141c:	69 c0 2f a9 00 00    	imul   $0xa92f,%eax,%eax
  401422:	89 44 24 10          	mov    %eax,0x10(%rsp)
  401426:	8b 44 24 10          	mov    0x10(%rsp),%eax
  40142a:	69 c0 a5 1c 00 00    	imul   $0x1ca5,%eax,%eax
  401430:	89 44 24 10          	mov    %eax,0x10(%rsp)
  401434:	8b 44 24 14          	mov    0x14(%rsp),%eax
  401438:	69 c0 7e 8a 00 00    	imul   $0x8a7e,%eax,%eax
  40143e:	89 44 24 14          	mov    %eax,0x14(%rsp)
  401442:	8b 44 24 08          	mov    0x8(%rsp),%eax
  401446:	69 c0 1c 46 00 00    	imul   $0x461c,%eax,%eax
  40144c:	89 44 24 08          	mov    %eax,0x8(%rsp)
  401450:	8b 04 24             	mov    (%rsp),%eax
  401453:	69 c0 93 93 00 00    	imul   $0x9393,%eax,%eax
  401459:	89 04 24             	mov    %eax,(%rsp)
  40145c:	8b 44 24 20          	mov    0x20(%rsp),%eax
  401460:	69 c0 64 16 00 00    	imul   $0x1664,%eax,%eax
  401466:	89 44 24 20          	mov    %eax,0x20(%rsp)
  40146a:	8b 44 24 1c          	mov    0x1c(%rsp),%eax
  40146e:	69 c0 01 a5 00 00    	imul   $0xa501,%eax,%eax
  401474:	89 44 24 1c          	mov    %eax,0x1c(%rsp)
  401478:	8b 44 24 10          	mov    0x10(%rsp),%eax
  40147c:	69 c0 5c 6e 00 00    	imul   $0x6e5c,%eax,%eax
  401482:	89 44 24 10          	mov    %eax,0x10(%rsp)
  401486:	8b 44 24 20          	mov    0x20(%rsp),%eax
  40148a:	69 c0 8d f9 00 00    	imul   $0xf98d,%eax,%eax
  401490:	89 44 24 20          	mov    %eax,0x20(%rsp)
  401494:	8b 44 24 10          	mov    0x10(%rsp),%eax
  401498:	69 c0 a3 0d 00 00    	imul   $0xda3,%eax,%eax
  40149e:	89 44 24 10          	mov    %eax,0x10(%rsp)
  4014a2:	8b 44 24 20          	mov    0x20(%rsp),%eax
  4014a6:	69 c0 44 28 00 00    	imul   $0x2844,%eax,%eax
  4014ac:	89 44 24 20          	mov    %eax,0x20(%rsp)
  4014b0:	8b 44 24 24          	mov    0x24(%rsp),%eax
  4014b4:	69 c0 25 cb 00 00    	imul   $0xcb25,%eax,%eax
  4014ba:	89 44 24 24          	mov    %eax,0x24(%rsp)
  4014be:	8b 44 24 24          	mov    0x24(%rsp),%eax
  4014c2:	69 c0 a0 47 00 00    	imul   $0x47a0,%eax,%eax
  4014c8:	89 44 24 24          	mov    %eax,0x24(%rsp)
  4014cc:	8b 44 24 04          	mov    0x4(%rsp),%eax
  4014d0:	69 c0 15 42 00 00    	imul   $0x4215,%eax,%eax
  4014d6:	89 44 24 04          	mov    %eax,0x4(%rsp)
  4014da:	8b 44 24 08          	mov    0x8(%rsp),%eax
  4014de:	69 c0 72 aa 00 00    	imul   $0xaa72,%eax,%eax
  4014e4:	89 44 24 08          	mov    %eax,0x8(%rsp)
  4014e8:	8b 44 24 0c          	mov    0xc(%rsp),%eax
  4014ec:	69 c0 6a d4 00 00    	imul   $0xd46a,%eax,%eax
  4014f2:	89 44 24 0c          	mov    %eax,0xc(%rsp)
  4014f6:	8b 44 24 1c          	mov    0x1c(%rsp),%eax
  4014fa:	69 c0 55 3d 00 00    	imul   $0x3d55,%eax,%eax
  401500:	89 44 24 1c          	mov    %eax,0x1c(%rsp)
  401504:	8b 44 24 14          	mov    0x14(%rsp),%eax
  401508:	69 c0 87 43 00 00    	imul   $0x4387,%eax,%eax
  40150e:	89 44 24 14          	mov    %eax,0x14(%rsp)
  401512:	8b 44 24 1c          	mov    0x1c(%rsp),%eax
  401516:	69 c0 0c 74 00 00    	imul   $0x740c,%eax,%eax
  40151c:	89 44 24 1c          	mov    %eax,0x1c(%rsp)
  401520:	8b 44 24 18          	mov    0x18(%rsp),%eax
  401524:	69 c0 9b 73 00 00    	imul   $0x739b,%eax,%eax
  40152a:	89 44 24 18          	mov    %eax,0x18(%rsp)
  40152e:	8b 44 24 1c          	mov    0x1c(%rsp),%eax
  401532:	69 c0 a7 40 00 00    	imul   $0x40a7,%eax,%eax
  401538:	89 44 24 1c          	mov    %eax,0x1c(%rsp)
  40153c:	8b 44 24 14          	mov    0x14(%rsp),%eax
  401540:	69 c0 b0 0f 00 00    	imul   $0xfb0,%eax,%eax
  401546:	89 44 24 14          	mov    %eax,0x14(%rsp)
  40154a:	8b 44 24 18          	mov    0x18(%rsp),%eax
  40154e:	69 c0 ed 4a 00 00    	imul   $0x4aed,%eax,%eax
  401554:	89 44 24 18          	mov    %eax,0x18(%rsp)
  401558:	8b 44 24 18          	mov    0x18(%rsp),%eax
  40155c:	69 c0 6d 4a 00 00    	imul   $0x4a6d,%eax,%eax
  401562:	89 44 24 18          	mov    %eax,0x18(%rsp)
  401566:	8b 44 24 04          	mov    0x4(%rsp),%eax
  40156a:	89 c2                	mov    %eax,%edx
  40156c:	c1 e2 05             	shl    $0x5,%edx
  40156f:	c1 e0 0b             	shl    $0xb,%eax
  401572:	29 d0                	sub    %edx,%eax
  401574:	89 44 24 04          	mov    %eax,0x4(%rsp)
  401578:	8b 44 24 1c          	mov    0x1c(%rsp),%eax
  40157c:	69 c0 b6 f0 00 00    	imul   $0xf0b6,%eax,%eax
  401582:	89 44 24 1c          	mov    %eax,0x1c(%rsp)
  401586:	8b 44 24 10          	mov    0x10(%rsp),%eax
  40158a:	69 c0 41 97 00 00    	imul   $0x9741,%eax,%eax
  401590:	89 44 24 10          	mov    %eax,0x10(%rsp)
  401594:	8b 44 24 0c          	mov    0xc(%rsp),%eax
  401598:	69 c0 b8 6a 00 00    	imul   $0x6ab8,%eax,%eax
  40159e:	89 44 24 0c          	mov    %eax,0xc(%rsp)
  4015a2:	8b 44 24 20          	mov    0x20(%rsp),%eax
  4015a6:	69 c0 25 d5 00 00    	imul   $0xd525,%eax,%eax
  4015ac:	89 44 24 20          	mov    %eax,0x20(%rsp)
  4015b0:	8b 44 24 04          	mov    0x4(%rsp),%eax
  4015b4:	69 c0 0e 62 00 00    	imul   $0x620e,%eax,%eax
  4015ba:	89 44 24 04          	mov    %eax,0x4(%rsp)
  4015be:	8b 44 24 0c          	mov    0xc(%rsp),%eax
  4015c2:	69 c0 e0 42 00 00    	imul   $0x42e0,%eax,%eax
  4015c8:	89 44 24 0c          	mov    %eax,0xc(%rsp)
  4015cc:	8b 44 24 04          	mov    0x4(%rsp),%eax
  4015d0:	69 c0 38 d3 00 00    	imul   $0xd338,%eax,%eax
  4015d6:	89 44 24 04          	mov    %eax,0x4(%rsp)
  4015da:	8b 44 24 18          	mov    0x18(%rsp),%eax
  4015de:	69 c0 88 27 00 00    	imul   $0x2788,%eax,%eax
  4015e4:	89 44 24 18          	mov    %eax,0x18(%rsp)
  4015e8:	8b 44 24 14          	mov    0x14(%rsp),%eax
  4015ec:	69 c0 09 48 00 00    	imul   $0x4809,%eax,%eax
  4015f2:	89 44 24 14          	mov    %eax,0x14(%rsp)
  4015f6:	8b 44 24 18          	mov    0x18(%rsp),%eax
  4015fa:	69 c0 63 a0 00 00    	imul   $0xa063,%eax,%eax
  401600:	89 44 24 18          	mov    %eax,0x18(%rsp)
  401604:	8b 44 24 0c          	mov    0xc(%rsp),%eax
  401608:	69 c0 35 a3 00 00    	imul   $0xa335,%eax,%eax
  40160e:	89 44 24 0c          	mov    %eax,0xc(%rsp)
  401612:	8b 44 24 1c          	mov    0x1c(%rsp),%eax
  401616:	69 c0 a4 45 00 00    	imul   $0x45a4,%eax,%eax
  40161c:	89 44 24 1c          	mov    %eax,0x1c(%rsp)
  401620:	8b 44 24 0c          	mov    0xc(%rsp),%eax
  401624:	69 c0 b4 c6 00 00    	imul   $0xc6b4,%eax,%eax
  40162a:	89 44 24 0c          	mov    %eax,0xc(%rsp)
  40162e:	8b 44 24 24          	mov    0x24(%rsp),%eax
  401632:	69 c0 f1 30 00 00    	imul   $0x30f1,%eax,%eax
  401638:	89 44 24 24          	mov    %eax,0x24(%rsp)
  40163c:	8b 44 24 08          	mov    0x8(%rsp),%eax
  401640:	69 c0 0b d5 00 00    	imul   $0xd50b,%eax,%eax
  401646:	89 44 24 08          	mov    %eax,0x8(%rsp)
  40164a:	8b 44 24 0c          	mov    0xc(%rsp),%eax
  40164e:	69 c0 32 69 00 00    	imul   $0x6932,%eax,%eax
  401654:	89 44 24 0c          	mov    %eax,0xc(%rsp)
  401658:	8b 44 24 10          	mov    0x10(%rsp),%eax
  40165c:	69 c0 f7 68 00 00    	imul   $0x68f7,%eax,%eax
  401662:	89 44 24 10          	mov    %eax,0x10(%rsp)
  401666:	8b 44 24 14          	mov    0x14(%rsp),%eax
  40166a:	69 c0 9d 81 00 00    	imul   $0x819d,%eax,%eax
  401670:	89 44 24 14          	mov    %eax,0x14(%rsp)
  401674:	8b 44 24 0c          	mov    0xc(%rsp),%eax
  401678:	69 c0 55 df 00 00    	imul   $0xdf55,%eax,%eax
  40167e:	89 44 24 0c          	mov    %eax,0xc(%rsp)
  401682:	8b 44 24 18          	mov    0x18(%rsp),%eax
  401686:	69 c0 7d 80 00 00    	imul   $0x807d,%eax,%eax
  40168c:	89 44 24 18          	mov    %eax,0x18(%rsp)
  401690:	8b 44 24 20          	mov    0x20(%rsp),%eax
  401694:	69 c0 5a d6 00 00    	imul   $0xd65a,%eax,%eax
  40169a:	89 44 24 20          	mov    %eax,0x20(%rsp)
  40169e:	8b 44 24 0c          	mov    0xc(%rsp),%eax
  4016a2:	69 c0 dd 77 00 00    	imul   $0x77dd,%eax,%eax
  4016a8:	89 44 24 0c          	mov    %eax,0xc(%rsp)
  4016ac:	8b 44 24 04          	mov    0x4(%rsp),%eax
  4016b0:	69 c0 93 43 00 00    	imul   $0x4393,%eax,%eax
  4016b6:	89 44 24 04          	mov    %eax,0x4(%rsp)
  4016ba:	8b 44 24 20          	mov    0x20(%rsp),%eax
  4016be:	69 c0 53 c0 00 00    	imul   $0xc053,%eax,%eax
  4016c4:	89 44 24 20          	mov    %eax,0x20(%rsp)
  4016c8:	8b 44 24 10          	mov    0x10(%rsp),%eax
  4016cc:	69 c0 fa 3a 00 00    	imul   $0x3afa,%eax,%eax
  4016d2:	89 44 24 10          	mov    %eax,0x10(%rsp)
  4016d6:	8b 44 24 24          	mov    0x24(%rsp),%eax
  4016da:	69 c0 41 47 00 00    	imul   $0x4741,%eax,%eax
  4016e0:	89 44 24 24          	mov    %eax,0x24(%rsp)
  4016e4:	8b 44 24 0c          	mov    0xc(%rsp),%eax
  4016e8:	69 c0 c1 41 00 00    	imul   $0x41c1,%eax,%eax
  4016ee:	89 44 24 0c          	mov    %eax,0xc(%rsp)
  4016f2:	8b 44 24 1c          	mov    0x1c(%rsp),%eax
  4016f6:	69 c0 14 91 00 00    	imul   $0x9114,%eax,%eax
  4016fc:	89 44 24 1c          	mov    %eax,0x1c(%rsp)
  401700:	8b 44 24 08          	mov    0x8(%rsp),%eax
  401704:	69 c0 76 1d 00 00    	imul   $0x1d76,%eax,%eax
  40170a:	89 44 24 08          	mov    %eax,0x8(%rsp)
  40170e:	8b 44 24 24          	mov    0x24(%rsp),%eax
  401712:	69 c0 97 19 00 00    	imul   $0x1997,%eax,%eax
  401718:	89 44 24 24          	mov    %eax,0x24(%rsp)
  40171c:	8b 44 24 04          	mov    0x4(%rsp),%eax
  401720:	69 c0 d8 fa 00 00    	imul   $0xfad8,%eax,%eax
  401726:	89 44 24 04          	mov    %eax,0x4(%rsp)
  40172a:	8b 44 24 0c          	mov    0xc(%rsp),%eax
  40172e:	69 c0 42 b8 00 00    	imul   $0xb842,%eax,%eax
  401734:	89 44 24 0c          	mov    %eax,0xc(%rsp)
  401738:	8b 44 24 08          	mov    0x8(%rsp),%eax
  40173c:	69 c0 3d 83 00 00    	imul   $0x833d,%eax,%eax
  401742:	89 44 24 08          	mov    %eax,0x8(%rsp)
  401746:	8b 44 24 24          	mov    0x24(%rsp),%eax
  40174a:	69 c0 7e 37 00 00    	imul   $0x377e,%eax,%eax
  401750:	89 44 24 24          	mov    %eax,0x24(%rsp)
  401754:	8b 44 24 18          	mov    0x18(%rsp),%eax
  401758:	69 c0 a3 90 00 00    	imul   $0x90a3,%eax,%eax
  40175e:	89 44 24 18          	mov    %eax,0x18(%rsp)
  401762:	8b 44 24 14          	mov    0x14(%rsp),%eax
  401766:	69 c0 f7 a3 00 00    	imul   $0xa3f7,%eax,%eax
  40176c:	89 44 24 14          	mov    %eax,0x14(%rsp)
  401770:	8b 44 24 20          	mov    0x20(%rsp),%eax
  401774:	69 c0 5a 7b 00 00    	imul   $0x7b5a,%eax,%eax
  40177a:	89 44 24 20          	mov    %eax,0x20(%rsp)
  40177e:	8b 44 24 0c          	mov    0xc(%rsp),%eax
  401782:	69 c0 90 10 00 00    	imul   $0x1090,%eax,%eax
  401788:	89 44 24 0c          	mov    %eax,0xc(%rsp)
  40178c:	8b 44 24 24          	mov    0x24(%rsp),%eax
  401790:	69 c0 39 bb 00 00    	imul   $0xbb39,%eax,%eax
  401796:	89 44 24 24          	mov    %eax,0x24(%rsp)
  40179a:	8b 44 24 20          	mov    0x20(%rsp),%eax
  40179e:	69 c0 8a 4a 00 00    	imul   $0x4a8a,%eax,%eax
  4017a4:	89 44 24 20          	mov    %eax,0x20(%rsp)
  4017a8:	8b 44 24 04          	mov    0x4(%rsp),%eax
  4017ac:	69 c0 9a 31 00 00    	imul   $0x319a,%eax,%eax
  4017b2:	89 44 24 04          	mov    %eax,0x4(%rsp)
  4017b6:	8b 44 24 14          	mov    0x14(%rsp),%eax
  4017ba:	69 c0 63 d4 00 00    	imul   $0xd463,%eax,%eax
  4017c0:	89 44 24 14          	mov    %eax,0x14(%rsp)
  4017c4:	8b 44 24 18          	mov    0x18(%rsp),%eax
  4017c8:	69 c0 b0 1e 00 00    	imul   $0x1eb0,%eax,%eax
  4017ce:	89 44 24 18          	mov    %eax,0x18(%rsp)
  4017d2:	8b 44 24 10          	mov    0x10(%rsp),%eax
  4017d6:	69 c0 d1 7b 00 00    	imul   $0x7bd1,%eax,%eax
  4017dc:	89 44 24 10          	mov    %eax,0x10(%rsp)
  4017e0:	8b 44 24 10          	mov    0x10(%rsp),%eax
  4017e4:	69 c0 7e 27 00 00    	imul   $0x277e,%eax,%eax
  4017ea:	89 44 24 10          	mov    %eax,0x10(%rsp)
  4017ee:	8b 44 24 10          	mov    0x10(%rsp),%eax
  4017f2:	69 c0 a7 2e 00 00    	imul   $0x2ea7,%eax,%eax
  4017f8:	89 44 24 10          	mov    %eax,0x10(%rsp)
  4017fc:	8b 44 24 24          	mov    0x24(%rsp),%eax
  401800:	69 c0 31 18 00 00    	imul   $0x1831,%eax,%eax
  401806:	89 44 24 24          	mov    %eax,0x24(%rsp)
  40180a:	8b 44 24 14          	mov    0x14(%rsp),%eax
  40180e:	69 c0 25 86 00 00    	imul   $0x8625,%eax,%eax
  401814:	89 44 24 14          	mov    %eax,0x14(%rsp)
  401818:	8b 44 24 1c          	mov    0x1c(%rsp),%eax
  40181c:	69 c0 c9 20 00 00    	imul   $0x20c9,%eax,%eax
  401822:	89 44 24 1c          	mov    %eax,0x1c(%rsp)
  401826:	8b 04 24             	mov    (%rsp),%eax
  401829:	69 c0 02 fe 00 00    	imul   $0xfe02,%eax,%eax
  40182f:	89 04 24             	mov    %eax,(%rsp)
  401832:	8b 44 24 0c          	mov    0xc(%rsp),%eax
  401836:	69 c0 9f 75 00 00    	imul   $0x759f,%eax,%eax
  40183c:	89 44 24 0c          	mov    %eax,0xc(%rsp)
  401840:	8b 44 24 24          	mov    0x24(%rsp),%eax
  401844:	69 c0 6a 18 00 00    	imul   $0x186a,%eax,%eax
  40184a:	89 44 24 24          	mov    %eax,0x24(%rsp)
  40184e:	8b 44 24 20          	mov    0x20(%rsp),%eax
  401852:	69 c0 cd bd 00 00    	imul   $0xbdcd,%eax,%eax
  401858:	89 44 24 20          	mov    %eax,0x20(%rsp)
  40185c:	8b 44 24 10          	mov    0x10(%rsp),%eax
  401860:	69 c0 e7 af 00 00    	imul   $0xafe7,%eax,%eax
  401866:	89 44 24 10          	mov    %eax,0x10(%rsp)
  40186a:	8b 44 24 24          	mov    0x24(%rsp),%eax
  40186e:	69 c0 de f9 00 00    	imul   $0xf9de,%eax,%eax
  401874:	89 44 24 24          	mov    %eax,0x24(%rsp)
  401878:	8b 44 24 18          	mov    0x18(%rsp),%eax
  40187c:	69 c0 3a 6f 00 00    	imul   $0x6f3a,%eax,%eax
  401882:	89 44 24 18          	mov    %eax,0x18(%rsp)
  401886:	8b 44 24 08          	mov    0x8(%rsp),%eax
  40188a:	69 c0 3c 8c 00 00    	imul   $0x8c3c,%eax,%eax
  401890:	89 44 24 08          	mov    %eax,0x8(%rsp)
  401894:	8b 44 24 20          	mov    0x20(%rsp),%eax
  401898:	69 c0 d3 9e 00 00    	imul   $0x9ed3,%eax,%eax
  40189e:	89 44 24 20          	mov    %eax,0x20(%rsp)
  4018a2:	8b 44 24 18          	mov    0x18(%rsp),%eax
  4018a6:	69 c0 16 a9 00 00    	imul   $0xa916,%eax,%eax
  4018ac:	89 44 24 18          	mov    %eax,0x18(%rsp)
  4018b0:	8b 04 24             	mov    (%rsp),%eax
  4018b3:	69 c0 12 e7 00 00    	imul   $0xe712,%eax,%eax
  4018b9:	89 04 24             	mov    %eax,(%rsp)
  4018bc:	8b 44 24 24          	mov    0x24(%rsp),%eax
  4018c0:	69 c0 0c b0 00 00    	imul   $0xb00c,%eax,%eax
  4018c6:	89 44 24 24          	mov    %eax,0x24(%rsp)
  4018ca:	ba 00 00 00 00       	mov    $0x0,%edx
  4018cf:	b8 00 00 00 00       	mov    $0x0,%eax
  4018d4:	eb 0a                	jmp    4018e0 <scramble+0x571>
  4018d6:	89 d1                	mov    %edx,%ecx
  4018d8:	8b 0c 8c             	mov    (%rsp,%rcx,4),%ecx
  4018db:	01 c8                	add    %ecx,%eax
  4018dd:	83 c2 01             	add    $0x1,%edx
  4018e0:	83 fa 09             	cmp    $0x9,%edx
  4018e3:	76 f1                	jbe    4018d6 <scramble+0x567>
  4018e5:	48 8b 74 24 28       	mov    0x28(%rsp),%rsi
  4018ea:	64 48 33 34 25 28 00 	xor    %fs:0x28,%rsi
  4018f1:	00 00 
  4018f3:	74 05                	je     4018fa <scramble+0x58b>
  4018f5:	e8 e6 f3 ff ff       	callq  400ce0 <__stack_chk_fail@plt>
  4018fa:	48 83 c4 38          	add    $0x38,%rsp
  4018fe:	c3                   	retq   

00000000004018ff <getbuf>:
  4018ff:	48 83 ec 18          	sub    $0x18,%rsp
  401903:	48 89 e7             	mov    %rsp,%rdi
  401906:	e8 7e 02 00 00       	callq  401b89 <Gets>
  40190b:	b8 01 00 00 00       	mov    $0x1,%eax
  401910:	48 83 c4 18          	add    $0x18,%rsp
  401914:	c3                   	retq   

0000000000401915 <touch1>:
  401915:	48 83 ec 08          	sub    $0x8,%rsp
  401919:	c7 05 d9 2b 20 00 01 	movl   $0x1,0x202bd9(%rip)        # 6044fc <vlevel>
  401920:	00 00 00 
  401923:	bf 2d 32 40 00       	mov    $0x40322d,%edi
  401928:	e8 93 f3 ff ff       	callq  400cc0 <puts@plt>
  40192d:	bf 01 00 00 00       	mov    $0x1,%edi
  401932:	e8 97 04 00 00       	callq  401dce <validate>
  401937:	bf 00 00 00 00       	mov    $0x0,%edi
  40193c:	e8 ef f4 ff ff       	callq  400e30 <exit@plt>

0000000000401941 <touch2>:
  401941:	48 83 ec 08          	sub    $0x8,%rsp
  401945:	89 fa                	mov    %edi,%edx
  401947:	c7 05 ab 2b 20 00 02 	movl   $0x2,0x202bab(%rip)        # 6044fc <vlevel>
  40194e:	00 00 00 
  401951:	39 3d ad 2b 20 00    	cmp    %edi,0x202bad(%rip)        # 604504 <cookie>
  401957:	75 20                	jne    401979 <touch2+0x38>
  401959:	be 50 32 40 00       	mov    $0x403250,%esi
  40195e:	bf 01 00 00 00       	mov    $0x1,%edi
  401963:	b8 00 00 00 00       	mov    $0x0,%eax
  401968:	e8 73 f4 ff ff       	callq  400de0 <__printf_chk@plt>
  40196d:	bf 02 00 00 00       	mov    $0x2,%edi
  401972:	e8 57 04 00 00       	callq  401dce <validate>
  401977:	eb 1e                	jmp    401997 <touch2+0x56>
  401979:	be 78 32 40 00       	mov    $0x403278,%esi
  40197e:	bf 01 00 00 00       	mov    $0x1,%edi
  401983:	b8 00 00 00 00       	mov    $0x0,%eax
  401988:	e8 53 f4 ff ff       	callq  400de0 <__printf_chk@plt>
  40198d:	bf 02 00 00 00       	mov    $0x2,%edi
  401992:	e8 f9 04 00 00       	callq  401e90 <fail>
  401997:	bf 00 00 00 00       	mov    $0x0,%edi
  40199c:	e8 8f f4 ff ff       	callq  400e30 <exit@plt>

00000000004019a1 <hexmatch>:
  4019a1:	41 54                	push   %r12
  4019a3:	55                   	push   %rbp
  4019a4:	53                   	push   %rbx
  4019a5:	48 83 c4 80          	add    $0xffffffffffffff80,%rsp
  4019a9:	89 fd                	mov    %edi,%ebp
  4019ab:	48 89 f3             	mov    %rsi,%rbx
  4019ae:	64 48 8b 04 25 28 00 	mov    %fs:0x28,%rax
  4019b5:	00 00 
  4019b7:	48 89 44 24 78       	mov    %rax,0x78(%rsp)
  4019bc:	31 c0                	xor    %eax,%eax
  4019be:	e8 dd f3 ff ff       	callq  400da0 <random@plt>
  4019c3:	48 89 c1             	mov    %rax,%rcx
  4019c6:	48 ba 0b d7 a3 70 3d 	movabs $0xa3d70a3d70a3d70b,%rdx
  4019cd:	0a d7 a3 
  4019d0:	48 f7 ea             	imul   %rdx
  4019d3:	48 01 ca             	add    %rcx,%rdx
  4019d6:	48 c1 fa 06          	sar    $0x6,%rdx
  4019da:	48 89 c8             	mov    %rcx,%rax
  4019dd:	48 c1 f8 3f          	sar    $0x3f,%rax
  4019e1:	48 29 c2             	sub    %rax,%rdx
  4019e4:	48 8d 04 92          	lea    (%rdx,%rdx,4),%rax
  4019e8:	48 8d 14 80          	lea    (%rax,%rax,4),%rdx
  4019ec:	48 8d 04 95 00 00 00 	lea    0x0(,%rdx,4),%rax
  4019f3:	00 
  4019f4:	48 29 c1             	sub    %rax,%rcx
  4019f7:	4c 8d 24 0c          	lea    (%rsp,%rcx,1),%r12
  4019fb:	41 89 e8             	mov    %ebp,%r8d
  4019fe:	b9 4a 32 40 00       	mov    $0x40324a,%ecx
  401a03:	48 c7 c2 ff ff ff ff 	mov    $0xffffffffffffffff,%rdx
  401a0a:	be 01 00 00 00       	mov    $0x1,%esi
  401a0f:	4c 89 e7             	mov    %r12,%rdi
  401a12:	b8 00 00 00 00       	mov    $0x0,%eax
  401a17:	e8 44 f4 ff ff       	callq  400e60 <__sprintf_chk@plt>
  401a1c:	ba 09 00 00 00       	mov    $0x9,%edx
  401a21:	4c 89 e6             	mov    %r12,%rsi
  401a24:	48 89 df             	mov    %rbx,%rdi
  401a27:	e8 74 f2 ff ff       	callq  400ca0 <strncmp@plt>
  401a2c:	85 c0                	test   %eax,%eax
  401a2e:	0f 94 c0             	sete   %al
  401a31:	48 8b 5c 24 78       	mov    0x78(%rsp),%rbx
  401a36:	64 48 33 1c 25 28 00 	xor    %fs:0x28,%rbx
  401a3d:	00 00 
  401a3f:	74 05                	je     401a46 <hexmatch+0xa5>
  401a41:	e8 9a f2 ff ff       	callq  400ce0 <__stack_chk_fail@plt>
  401a46:	0f b6 c0             	movzbl %al,%eax
  401a49:	48 83 ec 80          	sub    $0xffffffffffffff80,%rsp
  401a4d:	5b                   	pop    %rbx
  401a4e:	5d                   	pop    %rbp
  401a4f:	41 5c                	pop    %r12
  401a51:	c3                   	retq   

0000000000401a52 <touch3>:
  401a52:	53                   	push   %rbx
  401a53:	48 89 fb             	mov    %rdi,%rbx
  401a56:	c7 05 9c 2a 20 00 03 	movl   $0x3,0x202a9c(%rip)        # 6044fc <vlevel>
  401a5d:	00 00 00 
  401a60:	48 89 fe             	mov    %rdi,%rsi
  401a63:	8b 3d 9b 2a 20 00    	mov    0x202a9b(%rip),%edi        # 604504 <cookie>
  401a69:	e8 33 ff ff ff       	callq  4019a1 <hexmatch>
  401a6e:	85 c0                	test   %eax,%eax
  401a70:	74 23                	je     401a95 <touch3+0x43>
  401a72:	48 89 da             	mov    %rbx,%rdx
  401a75:	be a0 32 40 00       	mov    $0x4032a0,%esi
  401a7a:	bf 01 00 00 00       	mov    $0x1,%edi
  401a7f:	b8 00 00 00 00       	mov    $0x0,%eax
  401a84:	e8 57 f3 ff ff       	callq  400de0 <__printf_chk@plt>
  401a89:	bf 03 00 00 00       	mov    $0x3,%edi
  401a8e:	e8 3b 03 00 00       	callq  401dce <validate>
  401a93:	eb 21                	jmp    401ab6 <touch3+0x64>
  401a95:	48 89 da             	mov    %rbx,%rdx
  401a98:	be c8 32 40 00       	mov    $0x4032c8,%esi
  401a9d:	bf 01 00 00 00       	mov    $0x1,%edi
  401aa2:	b8 00 00 00 00       	mov    $0x0,%eax
  401aa7:	e8 34 f3 ff ff       	callq  400de0 <__printf_chk@plt>
  401aac:	bf 03 00 00 00       	mov    $0x3,%edi
  401ab1:	e8 da 03 00 00       	callq  401e90 <fail>
  401ab6:	bf 00 00 00 00       	mov    $0x0,%edi
  401abb:	e8 70 f3 ff ff       	callq  400e30 <exit@plt>

0000000000401ac0 <test>:
  401ac0:	48 83 ec 08          	sub    $0x8,%rsp
  401ac4:	b8 00 00 00 00       	mov    $0x0,%eax
  401ac9:	e8 31 fe ff ff       	callq  4018ff <getbuf>
  401ace:	89 c2                	mov    %eax,%edx
  401ad0:	be f0 32 40 00       	mov    $0x4032f0,%esi
  401ad5:	bf 01 00 00 00       	mov    $0x1,%edi
  401ada:	b8 00 00 00 00       	mov    $0x0,%eax
  401adf:	e8 fc f2 ff ff       	callq  400de0 <__printf_chk@plt>
  401ae4:	48 83 c4 08          	add    $0x8,%rsp
  401ae8:	c3                   	retq   

0000000000401ae9 <save_char>:
  401ae9:	8b 05 35 36 20 00    	mov    0x203635(%rip),%eax        # 605124 <gets_cnt>
  401aef:	3d ff 03 00 00       	cmp    $0x3ff,%eax
  401af4:	7f 49                	jg     401b3f <save_char+0x56>
  401af6:	8d 14 40             	lea    (%rax,%rax,2),%edx
  401af9:	89 f9                	mov    %edi,%ecx
  401afb:	c0 e9 04             	shr    $0x4,%cl
  401afe:	83 e1 0f             	and    $0xf,%ecx
  401b01:	0f b6 b1 10 36 40 00 	movzbl 0x403610(%rcx),%esi
  401b08:	48 63 ca             	movslq %edx,%rcx
  401b0b:	40 88 b1 20 45 60 00 	mov    %sil,0x604520(%rcx)
  401b12:	8d 4a 01             	lea    0x1(%rdx),%ecx
  401b15:	83 e7 0f             	and    $0xf,%edi
  401b18:	0f b6 b7 10 36 40 00 	movzbl 0x403610(%rdi),%esi
  401b1f:	48 63 c9             	movslq %ecx,%rcx
  401b22:	40 88 b1 20 45 60 00 	mov    %sil,0x604520(%rcx)
  401b29:	83 c2 02             	add    $0x2,%edx
  401b2c:	48 63 d2             	movslq %edx,%rdx
  401b2f:	c6 82 20 45 60 00 20 	movb   $0x20,0x604520(%rdx)
  401b36:	83 c0 01             	add    $0x1,%eax
  401b39:	89 05 e5 35 20 00    	mov    %eax,0x2035e5(%rip)        # 605124 <gets_cnt>
  401b3f:	f3 c3                	repz retq 

0000000000401b41 <save_term>:
  401b41:	8b 05 dd 35 20 00    	mov    0x2035dd(%rip),%eax        # 605124 <gets_cnt>
  401b47:	8d 04 40             	lea    (%rax,%rax,2),%eax
  401b4a:	48 98                	cltq   
  401b4c:	c6 80 20 45 60 00 00 	movb   $0x0,0x604520(%rax)
  401b53:	c3                   	retq   

0000000000401b54 <check_fail>:
  401b54:	48 83 ec 08          	sub    $0x8,%rsp
  401b58:	0f be 15 c9 35 20 00 	movsbl 0x2035c9(%rip),%edx        # 605128 <target_prefix>
  401b5f:	41 b8 20 45 60 00    	mov    $0x604520,%r8d
  401b65:	8b 0d 8d 29 20 00    	mov    0x20298d(%rip),%ecx        # 6044f8 <check_level>
  401b6b:	be 13 33 40 00       	mov    $0x403313,%esi
  401b70:	bf 01 00 00 00       	mov    $0x1,%edi
  401b75:	b8 00 00 00 00       	mov    $0x0,%eax
  401b7a:	e8 61 f2 ff ff       	callq  400de0 <__printf_chk@plt>
  401b7f:	bf 01 00 00 00       	mov    $0x1,%edi
  401b84:	e8 a7 f2 ff ff       	callq  400e30 <exit@plt>

0000000000401b89 <Gets>:
  401b89:	41 54                	push   %r12
  401b8b:	55                   	push   %rbp
  401b8c:	53                   	push   %rbx
  401b8d:	49 89 fc             	mov    %rdi,%r12
  401b90:	c7 05 8a 35 20 00 00 	movl   $0x0,0x20358a(%rip)        # 605124 <gets_cnt>
  401b97:	00 00 00 
  401b9a:	48 89 fb             	mov    %rdi,%rbx
  401b9d:	eb 11                	jmp    401bb0 <Gets+0x27>
  401b9f:	48 8d 6b 01          	lea    0x1(%rbx),%rbp
  401ba3:	88 03                	mov    %al,(%rbx)
  401ba5:	0f b6 f8             	movzbl %al,%edi
  401ba8:	e8 3c ff ff ff       	callq  401ae9 <save_char>
  401bad:	48 89 eb             	mov    %rbp,%rbx
  401bb0:	48 8b 3d 39 29 20 00 	mov    0x202939(%rip),%rdi        # 6044f0 <infile>
  401bb7:	e8 f4 f1 ff ff       	callq  400db0 <_IO_getc@plt>
  401bbc:	83 f8 ff             	cmp    $0xffffffff,%eax
  401bbf:	74 05                	je     401bc6 <Gets+0x3d>
  401bc1:	83 f8 0a             	cmp    $0xa,%eax
  401bc4:	75 d9                	jne    401b9f <Gets+0x16>
  401bc6:	c6 03 00             	movb   $0x0,(%rbx)
  401bc9:	b8 00 00 00 00       	mov    $0x0,%eax
  401bce:	e8 6e ff ff ff       	callq  401b41 <save_term>
  401bd3:	4c 89 e0             	mov    %r12,%rax
  401bd6:	5b                   	pop    %rbx
  401bd7:	5d                   	pop    %rbp
  401bd8:	41 5c                	pop    %r12
  401bda:	c3                   	retq   

0000000000401bdb <notify_server>:
  401bdb:	53                   	push   %rbx
  401bdc:	48 81 ec 10 40 00 00 	sub    $0x4010,%rsp
  401be3:	64 48 8b 04 25 28 00 	mov    %fs:0x28,%rax
  401bea:	00 00 
  401bec:	48 89 84 24 08 40 00 	mov    %rax,0x4008(%rsp)
  401bf3:	00 
  401bf4:	31 c0                	xor    %eax,%eax
  401bf6:	83 3d 0b 29 20 00 00 	cmpl   $0x0,0x20290b(%rip)        # 604508 <is_checker>
  401bfd:	0f 85 aa 01 00 00    	jne    401dad <notify_server+0x1d2>
  401c03:	89 fb                	mov    %edi,%ebx
  401c05:	8b 05 19 35 20 00    	mov    0x203519(%rip),%eax        # 605124 <gets_cnt>
  401c0b:	83 c0 64             	add    $0x64,%eax
  401c0e:	3d 00 20 00 00       	cmp    $0x2000,%eax
  401c13:	7e 1e                	jle    401c33 <notify_server+0x58>
  401c15:	be 48 34 40 00       	mov    $0x403448,%esi
  401c1a:	bf 01 00 00 00       	mov    $0x1,%edi
  401c1f:	b8 00 00 00 00       	mov    $0x0,%eax
  401c24:	e8 b7 f1 ff ff       	callq  400de0 <__printf_chk@plt>
  401c29:	bf 01 00 00 00       	mov    $0x1,%edi
  401c2e:	e8 fd f1 ff ff       	callq  400e30 <exit@plt>
  401c33:	0f be 05 ee 34 20 00 	movsbl 0x2034ee(%rip),%eax        # 605128 <target_prefix>
  401c3a:	83 3d 47 28 20 00 00 	cmpl   $0x0,0x202847(%rip)        # 604488 <notify>
  401c41:	74 08                	je     401c4b <notify_server+0x70>
  401c43:	8b 15 b7 28 20 00    	mov    0x2028b7(%rip),%edx        # 604500 <authkey>
  401c49:	eb 05                	jmp    401c50 <notify_server+0x75>
  401c4b:	ba ff ff ff ff       	mov    $0xffffffff,%edx
  401c50:	85 db                	test   %ebx,%ebx
  401c52:	74 08                	je     401c5c <notify_server+0x81>
  401c54:	41 b9 29 33 40 00    	mov    $0x403329,%r9d
  401c5a:	eb 06                	jmp    401c62 <notify_server+0x87>
  401c5c:	41 b9 2e 33 40 00    	mov    $0x40332e,%r9d
  401c62:	68 20 45 60 00       	pushq  $0x604520
  401c67:	56                   	push   %rsi
  401c68:	50                   	push   %rax
  401c69:	52                   	push   %rdx
  401c6a:	44 8b 05 d7 24 20 00 	mov    0x2024d7(%rip),%r8d        # 604148 <target_id>
  401c71:	b9 33 33 40 00       	mov    $0x403333,%ecx
  401c76:	ba 00 20 00 00       	mov    $0x2000,%edx
  401c7b:	be 01 00 00 00       	mov    $0x1,%esi
  401c80:	48 8d 7c 24 20       	lea    0x20(%rsp),%rdi
  401c85:	b8 00 00 00 00       	mov    $0x0,%eax
  401c8a:	e8 d1 f1 ff ff       	callq  400e60 <__sprintf_chk@plt>
  401c8f:	48 83 c4 20          	add    $0x20,%rsp
  401c93:	83 3d ee 27 20 00 00 	cmpl   $0x0,0x2027ee(%rip)        # 604488 <notify>
  401c9a:	0f 84 81 00 00 00    	je     401d21 <notify_server+0x146>
  401ca0:	85 db                	test   %ebx,%ebx
  401ca2:	74 6e                	je     401d12 <notify_server+0x137>
  401ca4:	4c 8d 8c 24 00 20 00 	lea    0x2000(%rsp),%r9
  401cab:	00 
  401cac:	41 b8 00 00 00 00    	mov    $0x0,%r8d
  401cb2:	48 89 e1             	mov    %rsp,%rcx
  401cb5:	48 8b 15 94 24 20 00 	mov    0x202494(%rip),%rdx        # 604150 <lab>
  401cbc:	48 8b 35 95 24 20 00 	mov    0x202495(%rip),%rsi        # 604158 <course>
  401cc3:	48 8b 3d 76 24 20 00 	mov    0x202476(%rip),%rdi        # 604140 <user_id>
  401cca:	e8 b9 10 00 00       	callq  402d88 <driver_post>
  401ccf:	85 c0                	test   %eax,%eax
  401cd1:	79 26                	jns    401cf9 <notify_server+0x11e>
  401cd3:	48 8d 94 24 00 20 00 	lea    0x2000(%rsp),%rdx
  401cda:	00 
  401cdb:	be 4f 33 40 00       	mov    $0x40334f,%esi
  401ce0:	bf 01 00 00 00       	mov    $0x1,%edi
  401ce5:	b8 00 00 00 00       	mov    $0x0,%eax
  401cea:	e8 f1 f0 ff ff       	callq  400de0 <__printf_chk@plt>
  401cef:	bf 01 00 00 00       	mov    $0x1,%edi
  401cf4:	e8 37 f1 ff ff       	callq  400e30 <exit@plt>
  401cf9:	bf 78 34 40 00       	mov    $0x403478,%edi
  401cfe:	e8 bd ef ff ff       	callq  400cc0 <puts@plt>
  401d03:	bf 5b 33 40 00       	mov    $0x40335b,%edi
  401d08:	e8 b3 ef ff ff       	callq  400cc0 <puts@plt>
  401d0d:	e9 9b 00 00 00       	jmpq   401dad <notify_server+0x1d2>
  401d12:	bf 65 33 40 00       	mov    $0x403365,%edi
  401d17:	e8 a4 ef ff ff       	callq  400cc0 <puts@plt>
  401d1c:	e9 8c 00 00 00       	jmpq   401dad <notify_server+0x1d2>
  401d21:	85 db                	test   %ebx,%ebx
  401d23:	74 07                	je     401d2c <notify_server+0x151>
  401d25:	ba 29 33 40 00       	mov    $0x403329,%edx
  401d2a:	eb 05                	jmp    401d31 <notify_server+0x156>
  401d2c:	ba 2e 33 40 00       	mov    $0x40332e,%edx
  401d31:	be b0 34 40 00       	mov    $0x4034b0,%esi
  401d36:	bf 01 00 00 00       	mov    $0x1,%edi
  401d3b:	b8 00 00 00 00       	mov    $0x0,%eax
  401d40:	e8 9b f0 ff ff       	callq  400de0 <__printf_chk@plt>
  401d45:	48 8b 15 f4 23 20 00 	mov    0x2023f4(%rip),%rdx        # 604140 <user_id>
  401d4c:	be 6c 33 40 00       	mov    $0x40336c,%esi
  401d51:	bf 01 00 00 00       	mov    $0x1,%edi
  401d56:	b8 00 00 00 00       	mov    $0x0,%eax
  401d5b:	e8 80 f0 ff ff       	callq  400de0 <__printf_chk@plt>
  401d60:	48 8b 15 f1 23 20 00 	mov    0x2023f1(%rip),%rdx        # 604158 <course>
  401d67:	be 79 33 40 00       	mov    $0x403379,%esi
  401d6c:	bf 01 00 00 00       	mov    $0x1,%edi
  401d71:	b8 00 00 00 00       	mov    $0x0,%eax
  401d76:	e8 65 f0 ff ff       	callq  400de0 <__printf_chk@plt>
  401d7b:	48 8b 15 ce 23 20 00 	mov    0x2023ce(%rip),%rdx        # 604150 <lab>
  401d82:	be 85 33 40 00       	mov    $0x403385,%esi
  401d87:	bf 01 00 00 00       	mov    $0x1,%edi
  401d8c:	b8 00 00 00 00       	mov    $0x0,%eax
  401d91:	e8 4a f0 ff ff       	callq  400de0 <__printf_chk@plt>
  401d96:	48 89 e2             	mov    %rsp,%rdx
  401d99:	be 8e 33 40 00       	mov    $0x40338e,%esi
  401d9e:	bf 01 00 00 00       	mov    $0x1,%edi
  401da3:	b8 00 00 00 00       	mov    $0x0,%eax
  401da8:	e8 33 f0 ff ff       	callq  400de0 <__printf_chk@plt>
  401dad:	48 8b 84 24 08 40 00 	mov    0x4008(%rsp),%rax
  401db4:	00 
  401db5:	64 48 33 04 25 28 00 	xor    %fs:0x28,%rax
  401dbc:	00 00 
  401dbe:	74 05                	je     401dc5 <notify_server+0x1ea>
  401dc0:	e8 1b ef ff ff       	callq  400ce0 <__stack_chk_fail@plt>
  401dc5:	48 81 c4 10 40 00 00 	add    $0x4010,%rsp
  401dcc:	5b                   	pop    %rbx
  401dcd:	c3                   	retq   

0000000000401dce <validate>:
  401dce:	53                   	push   %rbx
  401dcf:	89 fb                	mov    %edi,%ebx
  401dd1:	83 3d 30 27 20 00 00 	cmpl   $0x0,0x202730(%rip)        # 604508 <is_checker>
  401dd8:	74 6b                	je     401e45 <validate+0x77>
  401dda:	39 3d 1c 27 20 00    	cmp    %edi,0x20271c(%rip)        # 6044fc <vlevel>
  401de0:	74 14                	je     401df6 <validate+0x28>
  401de2:	bf 9a 33 40 00       	mov    $0x40339a,%edi
  401de7:	e8 d4 ee ff ff       	callq  400cc0 <puts@plt>
  401dec:	b8 00 00 00 00       	mov    $0x0,%eax
  401df1:	e8 5e fd ff ff       	callq  401b54 <check_fail>
  401df6:	8b 15 fc 26 20 00    	mov    0x2026fc(%rip),%edx        # 6044f8 <check_level>
  401dfc:	39 d7                	cmp    %edx,%edi
  401dfe:	74 20                	je     401e20 <validate+0x52>
  401e00:	89 f9                	mov    %edi,%ecx
  401e02:	be d8 34 40 00       	mov    $0x4034d8,%esi
  401e07:	bf 01 00 00 00       	mov    $0x1,%edi
  401e0c:	b8 00 00 00 00       	mov    $0x0,%eax
  401e11:	e8 ca ef ff ff       	callq  400de0 <__printf_chk@plt>
  401e16:	b8 00 00 00 00       	mov    $0x0,%eax
  401e1b:	e8 34 fd ff ff       	callq  401b54 <check_fail>
  401e20:	0f be 15 01 33 20 00 	movsbl 0x203301(%rip),%edx        # 605128 <target_prefix>
  401e27:	41 b8 20 45 60 00    	mov    $0x604520,%r8d
  401e2d:	89 f9                	mov    %edi,%ecx
  401e2f:	be b8 33 40 00       	mov    $0x4033b8,%esi
  401e34:	bf 01 00 00 00       	mov    $0x1,%edi
  401e39:	b8 00 00 00 00       	mov    $0x0,%eax
  401e3e:	e8 9d ef ff ff       	callq  400de0 <__printf_chk@plt>
  401e43:	eb 49                	jmp    401e8e <validate+0xc0>
  401e45:	3b 3d b1 26 20 00    	cmp    0x2026b1(%rip),%edi        # 6044fc <vlevel>
  401e4b:	74 18                	je     401e65 <validate+0x97>
  401e4d:	bf 9a 33 40 00       	mov    $0x40339a,%edi
  401e52:	e8 69 ee ff ff       	callq  400cc0 <puts@plt>
  401e57:	89 de                	mov    %ebx,%esi
  401e59:	bf 00 00 00 00       	mov    $0x0,%edi
  401e5e:	e8 78 fd ff ff       	callq  401bdb <notify_server>
  401e63:	eb 29                	jmp    401e8e <validate+0xc0>
  401e65:	0f be 0d bc 32 20 00 	movsbl 0x2032bc(%rip),%ecx        # 605128 <target_prefix>
  401e6c:	89 fa                	mov    %edi,%edx
  401e6e:	be 00 35 40 00       	mov    $0x403500,%esi
  401e73:	bf 01 00 00 00       	mov    $0x1,%edi
  401e78:	b8 00 00 00 00       	mov    $0x0,%eax
  401e7d:	e8 5e ef ff ff       	callq  400de0 <__printf_chk@plt>
  401e82:	89 de                	mov    %ebx,%esi
  401e84:	bf 01 00 00 00       	mov    $0x1,%edi
  401e89:	e8 4d fd ff ff       	callq  401bdb <notify_server>
  401e8e:	5b                   	pop    %rbx
  401e8f:	c3                   	retq   

0000000000401e90 <fail>:
  401e90:	48 83 ec 08          	sub    $0x8,%rsp
  401e94:	83 3d 6d 26 20 00 00 	cmpl   $0x0,0x20266d(%rip)        # 604508 <is_checker>
  401e9b:	74 0a                	je     401ea7 <fail+0x17>
  401e9d:	b8 00 00 00 00       	mov    $0x0,%eax
  401ea2:	e8 ad fc ff ff       	callq  401b54 <check_fail>
  401ea7:	89 fe                	mov    %edi,%esi
  401ea9:	bf 00 00 00 00       	mov    $0x0,%edi
  401eae:	e8 28 fd ff ff       	callq  401bdb <notify_server>
  401eb3:	48 83 c4 08          	add    $0x8,%rsp
  401eb7:	c3                   	retq   

0000000000401eb8 <bushandler>:
  401eb8:	48 83 ec 08          	sub    $0x8,%rsp
  401ebc:	83 3d 45 26 20 00 00 	cmpl   $0x0,0x202645(%rip)        # 604508 <is_checker>
  401ec3:	74 14                	je     401ed9 <bushandler+0x21>
  401ec5:	bf cd 33 40 00       	mov    $0x4033cd,%edi
  401eca:	e8 f1 ed ff ff       	callq  400cc0 <puts@plt>
  401ecf:	b8 00 00 00 00       	mov    $0x0,%eax
  401ed4:	e8 7b fc ff ff       	callq  401b54 <check_fail>
  401ed9:	bf 38 35 40 00       	mov    $0x403538,%edi
  401ede:	e8 dd ed ff ff       	callq  400cc0 <puts@plt>
  401ee3:	bf d7 33 40 00       	mov    $0x4033d7,%edi
  401ee8:	e8 d3 ed ff ff       	callq  400cc0 <puts@plt>
  401eed:	be 00 00 00 00       	mov    $0x0,%esi
  401ef2:	bf 00 00 00 00       	mov    $0x0,%edi
  401ef7:	e8 df fc ff ff       	callq  401bdb <notify_server>
  401efc:	bf 01 00 00 00       	mov    $0x1,%edi
  401f01:	e8 2a ef ff ff       	callq  400e30 <exit@plt>

0000000000401f06 <seghandler>:
  401f06:	48 83 ec 08          	sub    $0x8,%rsp
  401f0a:	83 3d f7 25 20 00 00 	cmpl   $0x0,0x2025f7(%rip)        # 604508 <is_checker>
  401f11:	74 14                	je     401f27 <seghandler+0x21>
  401f13:	bf ed 33 40 00       	mov    $0x4033ed,%edi
  401f18:	e8 a3 ed ff ff       	callq  400cc0 <puts@plt>
  401f1d:	b8 00 00 00 00       	mov    $0x0,%eax
  401f22:	e8 2d fc ff ff       	callq  401b54 <check_fail>
  401f27:	bf 58 35 40 00       	mov    $0x403558,%edi
  401f2c:	e8 8f ed ff ff       	callq  400cc0 <puts@plt>
  401f31:	bf d7 33 40 00       	mov    $0x4033d7,%edi
  401f36:	e8 85 ed ff ff       	callq  400cc0 <puts@plt>
  401f3b:	be 00 00 00 00       	mov    $0x0,%esi
  401f40:	bf 00 00 00 00       	mov    $0x0,%edi
  401f45:	e8 91 fc ff ff       	callq  401bdb <notify_server>
  401f4a:	bf 01 00 00 00       	mov    $0x1,%edi
  401f4f:	e8 dc ee ff ff       	callq  400e30 <exit@plt>

0000000000401f54 <illegalhandler>:
  401f54:	48 83 ec 08          	sub    $0x8,%rsp
  401f58:	83 3d a9 25 20 00 00 	cmpl   $0x0,0x2025a9(%rip)        # 604508 <is_checker>
  401f5f:	74 14                	je     401f75 <illegalhandler+0x21>
  401f61:	bf 00 34 40 00       	mov    $0x403400,%edi
  401f66:	e8 55 ed ff ff       	callq  400cc0 <puts@plt>
  401f6b:	b8 00 00 00 00       	mov    $0x0,%eax
  401f70:	e8 df fb ff ff       	callq  401b54 <check_fail>
  401f75:	bf 80 35 40 00       	mov    $0x403580,%edi
  401f7a:	e8 41 ed ff ff       	callq  400cc0 <puts@plt>
  401f7f:	bf d7 33 40 00       	mov    $0x4033d7,%edi
  401f84:	e8 37 ed ff ff       	callq  400cc0 <puts@plt>
  401f89:	be 00 00 00 00       	mov    $0x0,%esi
  401f8e:	bf 00 00 00 00       	mov    $0x0,%edi
  401f93:	e8 43 fc ff ff       	callq  401bdb <notify_server>
  401f98:	bf 01 00 00 00       	mov    $0x1,%edi
  401f9d:	e8 8e ee ff ff       	callq  400e30 <exit@plt>

0000000000401fa2 <sigalrmhandler>:
  401fa2:	48 83 ec 08          	sub    $0x8,%rsp
  401fa6:	83 3d 5b 25 20 00 00 	cmpl   $0x0,0x20255b(%rip)        # 604508 <is_checker>
  401fad:	74 14                	je     401fc3 <sigalrmhandler+0x21>
  401faf:	bf 14 34 40 00       	mov    $0x403414,%edi
  401fb4:	e8 07 ed ff ff       	callq  400cc0 <puts@plt>
  401fb9:	b8 00 00 00 00       	mov    $0x0,%eax
  401fbe:	e8 91 fb ff ff       	callq  401b54 <check_fail>
  401fc3:	ba 05 00 00 00       	mov    $0x5,%edx
  401fc8:	be b0 35 40 00       	mov    $0x4035b0,%esi
  401fcd:	bf 01 00 00 00       	mov    $0x1,%edi
  401fd2:	b8 00 00 00 00       	mov    $0x0,%eax
  401fd7:	e8 04 ee ff ff       	callq  400de0 <__printf_chk@plt>
  401fdc:	be 00 00 00 00       	mov    $0x0,%esi
  401fe1:	bf 00 00 00 00       	mov    $0x0,%edi
  401fe6:	e8 f0 fb ff ff       	callq  401bdb <notify_server>
  401feb:	bf 01 00 00 00       	mov    $0x1,%edi
  401ff0:	e8 3b ee ff ff       	callq  400e30 <exit@plt>

0000000000401ff5 <launch>:
  401ff5:	55                   	push   %rbp
  401ff6:	48 89 e5             	mov    %rsp,%rbp
  401ff9:	48 83 ec 10          	sub    $0x10,%rsp
  401ffd:	48 89 fa             	mov    %rdi,%rdx
  402000:	64 48 8b 04 25 28 00 	mov    %fs:0x28,%rax
  402007:	00 00 
  402009:	48 89 45 f8          	mov    %rax,-0x8(%rbp)
  40200d:	31 c0                	xor    %eax,%eax
  40200f:	48 8d 47 1e          	lea    0x1e(%rdi),%rax
  402013:	48 83 e0 f0          	and    $0xfffffffffffffff0,%rax
  402017:	48 29 c4             	sub    %rax,%rsp
  40201a:	48 8d 7c 24 0f       	lea    0xf(%rsp),%rdi
  40201f:	48 83 e7 f0          	and    $0xfffffffffffffff0,%rdi
  402023:	be f4 00 00 00       	mov    $0xf4,%esi
  402028:	e8 d3 ec ff ff       	callq  400d00 <memset@plt>
  40202d:	48 8b 05 6c 24 20 00 	mov    0x20246c(%rip),%rax        # 6044a0 <stdin@@GLIBC_2.2.5>
  402034:	48 39 05 b5 24 20 00 	cmp    %rax,0x2024b5(%rip)        # 6044f0 <infile>
  40203b:	75 14                	jne    402051 <launch+0x5c>
  40203d:	be 1c 34 40 00       	mov    $0x40341c,%esi
  402042:	bf 01 00 00 00       	mov    $0x1,%edi
  402047:	b8 00 00 00 00       	mov    $0x0,%eax
  40204c:	e8 8f ed ff ff       	callq  400de0 <__printf_chk@plt>
  402051:	c7 05 a1 24 20 00 00 	movl   $0x0,0x2024a1(%rip)        # 6044fc <vlevel>
  402058:	00 00 00 
  40205b:	b8 00 00 00 00       	mov    $0x0,%eax
  402060:	e8 5b fa ff ff       	callq  401ac0 <test>
  402065:	83 3d 9c 24 20 00 00 	cmpl   $0x0,0x20249c(%rip)        # 604508 <is_checker>
  40206c:	74 14                	je     402082 <launch+0x8d>
  40206e:	bf 29 34 40 00       	mov    $0x403429,%edi
  402073:	e8 48 ec ff ff       	callq  400cc0 <puts@plt>
  402078:	b8 00 00 00 00       	mov    $0x0,%eax
  40207d:	e8 d2 fa ff ff       	callq  401b54 <check_fail>
  402082:	bf 34 34 40 00       	mov    $0x403434,%edi
  402087:	e8 34 ec ff ff       	callq  400cc0 <puts@plt>
  40208c:	48 8b 45 f8          	mov    -0x8(%rbp),%rax
  402090:	64 48 33 04 25 28 00 	xor    %fs:0x28,%rax
  402097:	00 00 
  402099:	74 05                	je     4020a0 <launch+0xab>
  40209b:	e8 40 ec ff ff       	callq  400ce0 <__stack_chk_fail@plt>
  4020a0:	c9                   	leaveq 
  4020a1:	c3                   	retq   

00000000004020a2 <stable_launch>:
  4020a2:	53                   	push   %rbx
  4020a3:	48 89 3d 3e 24 20 00 	mov    %rdi,0x20243e(%rip)        # 6044e8 <global_offset>
  4020aa:	41 b9 00 00 00 00    	mov    $0x0,%r9d
  4020b0:	41 b8 00 00 00 00    	mov    $0x0,%r8d
  4020b6:	b9 32 01 00 00       	mov    $0x132,%ecx
  4020bb:	ba 07 00 00 00       	mov    $0x7,%edx
  4020c0:	be 00 00 10 00       	mov    $0x100000,%esi
  4020c5:	bf 00 60 58 55       	mov    $0x55586000,%edi
  4020ca:	e8 21 ec ff ff       	callq  400cf0 <mmap@plt>
  4020cf:	48 89 c3             	mov    %rax,%rbx
  4020d2:	48 3d 00 60 58 55    	cmp    $0x55586000,%rax
  4020d8:	74 37                	je     402111 <stable_launch+0x6f>
  4020da:	be 00 00 10 00       	mov    $0x100000,%esi
  4020df:	48 89 c7             	mov    %rax,%rdi
  4020e2:	e8 e9 ec ff ff       	callq  400dd0 <munmap@plt>
  4020e7:	b9 00 60 58 55       	mov    $0x55586000,%ecx
  4020ec:	ba e8 35 40 00       	mov    $0x4035e8,%edx
  4020f1:	be 01 00 00 00       	mov    $0x1,%esi
  4020f6:	48 8b 3d c3 23 20 00 	mov    0x2023c3(%rip),%rdi        # 6044c0 <stderr@@GLIBC_2.2.5>
  4020fd:	b8 00 00 00 00       	mov    $0x0,%eax
  402102:	e8 49 ed ff ff       	callq  400e50 <__fprintf_chk@plt>
  402107:	bf 01 00 00 00       	mov    $0x1,%edi
  40210c:	e8 1f ed ff ff       	callq  400e30 <exit@plt>
  402111:	48 8d 90 f8 ff 0f 00 	lea    0xffff8(%rax),%rdx
  402118:	48 89 15 11 30 20 00 	mov    %rdx,0x203011(%rip)        # 605130 <stack_top>
  40211f:	48 89 e0             	mov    %rsp,%rax
  402122:	48 89 d4             	mov    %rdx,%rsp
  402125:	48 89 c2             	mov    %rax,%rdx
  402128:	48 89 15 b1 23 20 00 	mov    %rdx,0x2023b1(%rip)        # 6044e0 <global_save_stack>
  40212f:	48 8b 3d b2 23 20 00 	mov    0x2023b2(%rip),%rdi        # 6044e8 <global_offset>
  402136:	e8 ba fe ff ff       	callq  401ff5 <launch>
  40213b:	48 8b 05 9e 23 20 00 	mov    0x20239e(%rip),%rax        # 6044e0 <global_save_stack>
  402142:	48 89 c4             	mov    %rax,%rsp
  402145:	be 00 00 10 00       	mov    $0x100000,%esi
  40214a:	48 89 df             	mov    %rbx,%rdi
  40214d:	e8 7e ec ff ff       	callq  400dd0 <munmap@plt>
  402152:	5b                   	pop    %rbx
  402153:	c3                   	retq   

0000000000402154 <rio_readinitb>:
  402154:	89 37                	mov    %esi,(%rdi)
  402156:	c7 47 04 00 00 00 00 	movl   $0x0,0x4(%rdi)
  40215d:	48 8d 47 10          	lea    0x10(%rdi),%rax
  402161:	48 89 47 08          	mov    %rax,0x8(%rdi)
  402165:	c3                   	retq   

0000000000402166 <sigalrm_handler>:
  402166:	48 83 ec 08          	sub    $0x8,%rsp
  40216a:	b9 00 00 00 00       	mov    $0x0,%ecx
  40216f:	ba 20 36 40 00       	mov    $0x403620,%edx
  402174:	be 01 00 00 00       	mov    $0x1,%esi
  402179:	48 8b 3d 40 23 20 00 	mov    0x202340(%rip),%rdi        # 6044c0 <stderr@@GLIBC_2.2.5>
  402180:	b8 00 00 00 00       	mov    $0x0,%eax
  402185:	e8 c6 ec ff ff       	callq  400e50 <__fprintf_chk@plt>
  40218a:	bf 01 00 00 00       	mov    $0x1,%edi
  40218f:	e8 9c ec ff ff       	callq  400e30 <exit@plt>

0000000000402194 <rio_writen>:
  402194:	41 55                	push   %r13
  402196:	41 54                	push   %r12
  402198:	55                   	push   %rbp
  402199:	53                   	push   %rbx
  40219a:	48 83 ec 08          	sub    $0x8,%rsp
  40219e:	41 89 fc             	mov    %edi,%r12d
  4021a1:	48 89 f5             	mov    %rsi,%rbp
  4021a4:	49 89 d5             	mov    %rdx,%r13
  4021a7:	48 89 d3             	mov    %rdx,%rbx
  4021aa:	eb 28                	jmp    4021d4 <rio_writen+0x40>
  4021ac:	48 89 da             	mov    %rbx,%rdx
  4021af:	48 89 ee             	mov    %rbp,%rsi
  4021b2:	44 89 e7             	mov    %r12d,%edi
  4021b5:	e8 16 eb ff ff       	callq  400cd0 <write@plt>
  4021ba:	48 85 c0             	test   %rax,%rax
  4021bd:	7f 0f                	jg     4021ce <rio_writen+0x3a>
  4021bf:	e8 bc ea ff ff       	callq  400c80 <__errno_location@plt>
  4021c4:	83 38 04             	cmpl   $0x4,(%rax)
  4021c7:	75 15                	jne    4021de <rio_writen+0x4a>
  4021c9:	b8 00 00 00 00       	mov    $0x0,%eax
  4021ce:	48 29 c3             	sub    %rax,%rbx
  4021d1:	48 01 c5             	add    %rax,%rbp
  4021d4:	48 85 db             	test   %rbx,%rbx
  4021d7:	75 d3                	jne    4021ac <rio_writen+0x18>
  4021d9:	4c 89 e8             	mov    %r13,%rax
  4021dc:	eb 07                	jmp    4021e5 <rio_writen+0x51>
  4021de:	48 c7 c0 ff ff ff ff 	mov    $0xffffffffffffffff,%rax
  4021e5:	48 83 c4 08          	add    $0x8,%rsp
  4021e9:	5b                   	pop    %rbx
  4021ea:	5d                   	pop    %rbp
  4021eb:	41 5c                	pop    %r12
  4021ed:	41 5d                	pop    %r13
  4021ef:	c3                   	retq   

00000000004021f0 <rio_read>:
  4021f0:	41 55                	push   %r13
  4021f2:	41 54                	push   %r12
  4021f4:	55                   	push   %rbp
  4021f5:	53                   	push   %rbx
  4021f6:	48 83 ec 08          	sub    $0x8,%rsp
  4021fa:	48 89 fb             	mov    %rdi,%rbx
  4021fd:	49 89 f5             	mov    %rsi,%r13
  402200:	49 89 d4             	mov    %rdx,%r12
  402203:	eb 2e                	jmp    402233 <rio_read+0x43>
  402205:	48 8d 6b 10          	lea    0x10(%rbx),%rbp
  402209:	8b 3b                	mov    (%rbx),%edi
  40220b:	ba 00 20 00 00       	mov    $0x2000,%edx
  402210:	48 89 ee             	mov    %rbp,%rsi
  402213:	e8 18 eb ff ff       	callq  400d30 <read@plt>
  402218:	89 43 04             	mov    %eax,0x4(%rbx)
  40221b:	85 c0                	test   %eax,%eax
  40221d:	79 0c                	jns    40222b <rio_read+0x3b>
  40221f:	e8 5c ea ff ff       	callq  400c80 <__errno_location@plt>
  402224:	83 38 04             	cmpl   $0x4,(%rax)
  402227:	74 0a                	je     402233 <rio_read+0x43>
  402229:	eb 37                	jmp    402262 <rio_read+0x72>
  40222b:	85 c0                	test   %eax,%eax
  40222d:	74 3c                	je     40226b <rio_read+0x7b>
  40222f:	48 89 6b 08          	mov    %rbp,0x8(%rbx)
  402233:	8b 6b 04             	mov    0x4(%rbx),%ebp
  402236:	85 ed                	test   %ebp,%ebp
  402238:	7e cb                	jle    402205 <rio_read+0x15>
  40223a:	89 e8                	mov    %ebp,%eax
  40223c:	49 39 c4             	cmp    %rax,%r12
  40223f:	77 03                	ja     402244 <rio_read+0x54>
  402241:	44 89 e5             	mov    %r12d,%ebp
  402244:	4c 63 e5             	movslq %ebp,%r12
  402247:	48 8b 73 08          	mov    0x8(%rbx),%rsi
  40224b:	4c 89 e2             	mov    %r12,%rdx
  40224e:	4c 89 ef             	mov    %r13,%rdi
  402251:	e8 2a eb ff ff       	callq  400d80 <memcpy@plt>
  402256:	4c 01 63 08          	add    %r12,0x8(%rbx)
  40225a:	29 6b 04             	sub    %ebp,0x4(%rbx)
  40225d:	4c 89 e0             	mov    %r12,%rax
  402260:	eb 0e                	jmp    402270 <rio_read+0x80>
  402262:	48 c7 c0 ff ff ff ff 	mov    $0xffffffffffffffff,%rax
  402269:	eb 05                	jmp    402270 <rio_read+0x80>
  40226b:	b8 00 00 00 00       	mov    $0x0,%eax
  402270:	48 83 c4 08          	add    $0x8,%rsp
  402274:	5b                   	pop    %rbx
  402275:	5d                   	pop    %rbp
  402276:	41 5c                	pop    %r12
  402278:	41 5d                	pop    %r13
  40227a:	c3                   	retq   

000000000040227b <rio_readlineb>:
  40227b:	41 55                	push   %r13
  40227d:	41 54                	push   %r12
  40227f:	55                   	push   %rbp
  402280:	53                   	push   %rbx
  402281:	48 83 ec 18          	sub    $0x18,%rsp
  402285:	49 89 fd             	mov    %rdi,%r13
  402288:	48 89 f5             	mov    %rsi,%rbp
  40228b:	49 89 d4             	mov    %rdx,%r12
  40228e:	64 48 8b 04 25 28 00 	mov    %fs:0x28,%rax
  402295:	00 00 
  402297:	48 89 44 24 08       	mov    %rax,0x8(%rsp)
  40229c:	31 c0                	xor    %eax,%eax
  40229e:	bb 01 00 00 00       	mov    $0x1,%ebx
  4022a3:	eb 3f                	jmp    4022e4 <rio_readlineb+0x69>
  4022a5:	ba 01 00 00 00       	mov    $0x1,%edx
  4022aa:	48 8d 74 24 07       	lea    0x7(%rsp),%rsi
  4022af:	4c 89 ef             	mov    %r13,%rdi
  4022b2:	e8 39 ff ff ff       	callq  4021f0 <rio_read>
  4022b7:	83 f8 01             	cmp    $0x1,%eax
  4022ba:	75 15                	jne    4022d1 <rio_readlineb+0x56>
  4022bc:	48 8d 45 01          	lea    0x1(%rbp),%rax
  4022c0:	0f b6 54 24 07       	movzbl 0x7(%rsp),%edx
  4022c5:	88 55 00             	mov    %dl,0x0(%rbp)
  4022c8:	80 7c 24 07 0a       	cmpb   $0xa,0x7(%rsp)
  4022cd:	75 0e                	jne    4022dd <rio_readlineb+0x62>
  4022cf:	eb 1a                	jmp    4022eb <rio_readlineb+0x70>
  4022d1:	85 c0                	test   %eax,%eax
  4022d3:	75 22                	jne    4022f7 <rio_readlineb+0x7c>
  4022d5:	48 83 fb 01          	cmp    $0x1,%rbx
  4022d9:	75 13                	jne    4022ee <rio_readlineb+0x73>
  4022db:	eb 23                	jmp    402300 <rio_readlineb+0x85>
  4022dd:	48 83 c3 01          	add    $0x1,%rbx
  4022e1:	48 89 c5             	mov    %rax,%rbp
  4022e4:	4c 39 e3             	cmp    %r12,%rbx
  4022e7:	72 bc                	jb     4022a5 <rio_readlineb+0x2a>
  4022e9:	eb 03                	jmp    4022ee <rio_readlineb+0x73>
  4022eb:	48 89 c5             	mov    %rax,%rbp
  4022ee:	c6 45 00 00          	movb   $0x0,0x0(%rbp)
  4022f2:	48 89 d8             	mov    %rbx,%rax
  4022f5:	eb 0e                	jmp    402305 <rio_readlineb+0x8a>
  4022f7:	48 c7 c0 ff ff ff ff 	mov    $0xffffffffffffffff,%rax
  4022fe:	eb 05                	jmp    402305 <rio_readlineb+0x8a>
  402300:	b8 00 00 00 00       	mov    $0x0,%eax
  402305:	48 8b 4c 24 08       	mov    0x8(%rsp),%rcx
  40230a:	64 48 33 0c 25 28 00 	xor    %fs:0x28,%rcx
  402311:	00 00 
  402313:	74 05                	je     40231a <rio_readlineb+0x9f>
  402315:	e8 c6 e9 ff ff       	callq  400ce0 <__stack_chk_fail@plt>
  40231a:	48 83 c4 18          	add    $0x18,%rsp
  40231e:	5b                   	pop    %rbx
  40231f:	5d                   	pop    %rbp
  402320:	41 5c                	pop    %r12
  402322:	41 5d                	pop    %r13
  402324:	c3                   	retq   

0000000000402325 <urlencode>:
  402325:	41 54                	push   %r12
  402327:	55                   	push   %rbp
  402328:	53                   	push   %rbx
  402329:	48 83 ec 10          	sub    $0x10,%rsp
  40232d:	48 89 fb             	mov    %rdi,%rbx
  402330:	48 89 f5             	mov    %rsi,%rbp
  402333:	64 48 8b 04 25 28 00 	mov    %fs:0x28,%rax
  40233a:	00 00 
  40233c:	48 89 44 24 08       	mov    %rax,0x8(%rsp)
  402341:	31 c0                	xor    %eax,%eax
  402343:	48 c7 c1 ff ff ff ff 	mov    $0xffffffffffffffff,%rcx
  40234a:	f2 ae                	repnz scas %es:(%rdi),%al
  40234c:	48 f7 d1             	not    %rcx
  40234f:	8d 41 ff             	lea    -0x1(%rcx),%eax
  402352:	e9 aa 00 00 00       	jmpq   402401 <urlencode+0xdc>
  402357:	44 0f b6 03          	movzbl (%rbx),%r8d
  40235b:	41 80 f8 2a          	cmp    $0x2a,%r8b
  40235f:	0f 94 c2             	sete   %dl
  402362:	41 80 f8 2d          	cmp    $0x2d,%r8b
  402366:	0f 94 c0             	sete   %al
  402369:	08 c2                	or     %al,%dl
  40236b:	75 24                	jne    402391 <urlencode+0x6c>
  40236d:	41 80 f8 2e          	cmp    $0x2e,%r8b
  402371:	74 1e                	je     402391 <urlencode+0x6c>
  402373:	41 80 f8 5f          	cmp    $0x5f,%r8b
  402377:	74 18                	je     402391 <urlencode+0x6c>
  402379:	41 8d 40 d0          	lea    -0x30(%r8),%eax
  40237d:	3c 09                	cmp    $0x9,%al
  40237f:	76 10                	jbe    402391 <urlencode+0x6c>
  402381:	41 8d 40 bf          	lea    -0x41(%r8),%eax
  402385:	3c 19                	cmp    $0x19,%al
  402387:	76 08                	jbe    402391 <urlencode+0x6c>
  402389:	41 8d 40 9f          	lea    -0x61(%r8),%eax
  40238d:	3c 19                	cmp    $0x19,%al
  40238f:	77 0a                	ja     40239b <urlencode+0x76>
  402391:	44 88 45 00          	mov    %r8b,0x0(%rbp)
  402395:	48 8d 6d 01          	lea    0x1(%rbp),%rbp
  402399:	eb 5f                	jmp    4023fa <urlencode+0xd5>
  40239b:	41 80 f8 20          	cmp    $0x20,%r8b
  40239f:	75 0a                	jne    4023ab <urlencode+0x86>
  4023a1:	c6 45 00 2b          	movb   $0x2b,0x0(%rbp)
  4023a5:	48 8d 6d 01          	lea    0x1(%rbp),%rbp
  4023a9:	eb 4f                	jmp    4023fa <urlencode+0xd5>
  4023ab:	41 8d 40 e0          	lea    -0x20(%r8),%eax
  4023af:	3c 5f                	cmp    $0x5f,%al
  4023b1:	0f 96 c2             	setbe  %dl
  4023b4:	41 80 f8 09          	cmp    $0x9,%r8b
  4023b8:	0f 94 c0             	sete   %al
  4023bb:	08 c2                	or     %al,%dl
  4023bd:	74 50                	je     40240f <urlencode+0xea>
  4023bf:	45 0f b6 c0          	movzbl %r8b,%r8d
  4023c3:	b9 b8 36 40 00       	mov    $0x4036b8,%ecx
  4023c8:	ba 08 00 00 00       	mov    $0x8,%edx
  4023cd:	be 01 00 00 00       	mov    $0x1,%esi
  4023d2:	48 89 e7             	mov    %rsp,%rdi
  4023d5:	b8 00 00 00 00       	mov    $0x0,%eax
  4023da:	e8 81 ea ff ff       	callq  400e60 <__sprintf_chk@plt>
  4023df:	0f b6 04 24          	movzbl (%rsp),%eax
  4023e3:	88 45 00             	mov    %al,0x0(%rbp)
  4023e6:	0f b6 44 24 01       	movzbl 0x1(%rsp),%eax
  4023eb:	88 45 01             	mov    %al,0x1(%rbp)
  4023ee:	0f b6 44 24 02       	movzbl 0x2(%rsp),%eax
  4023f3:	88 45 02             	mov    %al,0x2(%rbp)
  4023f6:	48 8d 6d 03          	lea    0x3(%rbp),%rbp
  4023fa:	48 83 c3 01          	add    $0x1,%rbx
  4023fe:	44 89 e0             	mov    %r12d,%eax
  402401:	44 8d 60 ff          	lea    -0x1(%rax),%r12d
  402405:	85 c0                	test   %eax,%eax
  402407:	0f 85 4a ff ff ff    	jne    402357 <urlencode+0x32>
  40240d:	eb 05                	jmp    402414 <urlencode+0xef>
  40240f:	b8 ff ff ff ff       	mov    $0xffffffff,%eax
  402414:	48 8b 74 24 08       	mov    0x8(%rsp),%rsi
  402419:	64 48 33 34 25 28 00 	xor    %fs:0x28,%rsi
  402420:	00 00 
  402422:	74 05                	je     402429 <urlencode+0x104>
  402424:	e8 b7 e8 ff ff       	callq  400ce0 <__stack_chk_fail@plt>
  402429:	48 83 c4 10          	add    $0x10,%rsp
  40242d:	5b                   	pop    %rbx
  40242e:	5d                   	pop    %rbp
  40242f:	41 5c                	pop    %r12
  402431:	c3                   	retq   

0000000000402432 <submitr>:
  402432:	41 57                	push   %r15
  402434:	41 56                	push   %r14
  402436:	41 55                	push   %r13
  402438:	41 54                	push   %r12
  40243a:	55                   	push   %rbp
  40243b:	53                   	push   %rbx
  40243c:	48 81 ec 58 a0 00 00 	sub    $0xa058,%rsp
  402443:	49 89 fc             	mov    %rdi,%r12
  402446:	89 74 24 04          	mov    %esi,0x4(%rsp)
  40244a:	49 89 d7             	mov    %rdx,%r15
  40244d:	49 89 ce             	mov    %rcx,%r14
  402450:	4c 89 44 24 08       	mov    %r8,0x8(%rsp)
  402455:	4d 89 cd             	mov    %r9,%r13
  402458:	48 8b 9c 24 90 a0 00 	mov    0xa090(%rsp),%rbx
  40245f:	00 
  402460:	64 48 8b 04 25 28 00 	mov    %fs:0x28,%rax
  402467:	00 00 
  402469:	48 89 84 24 48 a0 00 	mov    %rax,0xa048(%rsp)
  402470:	00 
  402471:	31 c0                	xor    %eax,%eax
  402473:	c7 44 24 1c 00 00 00 	movl   $0x0,0x1c(%rsp)
  40247a:	00 
  40247b:	ba 00 00 00 00       	mov    $0x0,%edx
  402480:	be 01 00 00 00       	mov    $0x1,%esi
  402485:	bf 02 00 00 00       	mov    $0x2,%edi
  40248a:	e8 e1 e9 ff ff       	callq  400e70 <socket@plt>
  40248f:	85 c0                	test   %eax,%eax
  402491:	79 4e                	jns    4024e1 <submitr+0xaf>
  402493:	48 b8 45 72 72 6f 72 	movabs $0x43203a726f727245,%rax
  40249a:	3a 20 43 
  40249d:	48 89 03             	mov    %rax,(%rbx)
  4024a0:	48 b8 6c 69 65 6e 74 	movabs $0x6e7520746e65696c,%rax
  4024a7:	20 75 6e 
  4024aa:	48 89 43 08          	mov    %rax,0x8(%rbx)
  4024ae:	48 b8 61 62 6c 65 20 	movabs $0x206f7420656c6261,%rax
  4024b5:	74 6f 20 
  4024b8:	48 89 43 10          	mov    %rax,0x10(%rbx)
  4024bc:	48 b8 63 72 65 61 74 	movabs $0x7320657461657263,%rax
  4024c3:	65 20 73 
  4024c6:	48 89 43 18          	mov    %rax,0x18(%rbx)
  4024ca:	c7 43 20 6f 63 6b 65 	movl   $0x656b636f,0x20(%rbx)
  4024d1:	66 c7 43 24 74 00    	movw   $0x74,0x24(%rbx)
  4024d7:	b8 ff ff ff ff       	mov    $0xffffffff,%eax
  4024dc:	e9 61 06 00 00       	jmpq   402b42 <submitr+0x710>
  4024e1:	89 c5                	mov    %eax,%ebp
  4024e3:	4c 89 e7             	mov    %r12,%rdi
  4024e6:	e8 65 e8 ff ff       	callq  400d50 <gethostbyname@plt>
  4024eb:	48 85 c0             	test   %rax,%rax
  4024ee:	75 67                	jne    402557 <submitr+0x125>
  4024f0:	48 b8 45 72 72 6f 72 	movabs $0x44203a726f727245,%rax
  4024f7:	3a 20 44 
  4024fa:	48 89 03             	mov    %rax,(%rbx)
  4024fd:	48 b8 4e 53 20 69 73 	movabs $0x6e7520736920534e,%rax
  402504:	20 75 6e 
  402507:	48 89 43 08          	mov    %rax,0x8(%rbx)
  40250b:	48 b8 61 62 6c 65 20 	movabs $0x206f7420656c6261,%rax
  402512:	74 6f 20 
  402515:	48 89 43 10          	mov    %rax,0x10(%rbx)
  402519:	48 b8 72 65 73 6f 6c 	movabs $0x2065766c6f736572,%rax
  402520:	76 65 20 
  402523:	48 89 43 18          	mov    %rax,0x18(%rbx)
  402527:	48 b8 73 65 72 76 65 	movabs $0x6120726576726573,%rax
  40252e:	72 20 61 
  402531:	48 89 43 20          	mov    %rax,0x20(%rbx)
  402535:	c7 43 28 64 64 72 65 	movl   $0x65726464,0x28(%rbx)
  40253c:	66 c7 43 2c 73 73    	movw   $0x7373,0x2c(%rbx)
  402542:	c6 43 2e 00          	movb   $0x0,0x2e(%rbx)
  402546:	89 ef                	mov    %ebp,%edi
  402548:	e8 d3 e7 ff ff       	callq  400d20 <close@plt>
  40254d:	b8 ff ff ff ff       	mov    $0xffffffff,%eax
  402552:	e9 eb 05 00 00       	jmpq   402b42 <submitr+0x710>
  402557:	48 c7 44 24 20 00 00 	movq   $0x0,0x20(%rsp)
  40255e:	00 00 
  402560:	48 c7 44 24 28 00 00 	movq   $0x0,0x28(%rsp)
  402567:	00 00 
  402569:	66 c7 44 24 20 02 00 	movw   $0x2,0x20(%rsp)
  402570:	48 63 50 14          	movslq 0x14(%rax),%rdx
  402574:	48 8b 40 18          	mov    0x18(%rax),%rax
  402578:	48 8b 30             	mov    (%rax),%rsi
  40257b:	48 8d 7c 24 24       	lea    0x24(%rsp),%rdi
  402580:	b9 0c 00 00 00       	mov    $0xc,%ecx
  402585:	e8 d6 e7 ff ff       	callq  400d60 <__memmove_chk@plt>
  40258a:	0f b7 44 24 04       	movzwl 0x4(%rsp),%eax
  40258f:	66 c1 c8 08          	ror    $0x8,%ax
  402593:	66 89 44 24 22       	mov    %ax,0x22(%rsp)
  402598:	ba 10 00 00 00       	mov    $0x10,%edx
  40259d:	48 8d 74 24 20       	lea    0x20(%rsp),%rsi
  4025a2:	89 ef                	mov    %ebp,%edi
  4025a4:	e8 97 e8 ff ff       	callq  400e40 <connect@plt>
  4025a9:	85 c0                	test   %eax,%eax
  4025ab:	79 59                	jns    402606 <submitr+0x1d4>
  4025ad:	48 b8 45 72 72 6f 72 	movabs $0x55203a726f727245,%rax
  4025b4:	3a 20 55 
  4025b7:	48 89 03             	mov    %rax,(%rbx)
  4025ba:	48 b8 6e 61 62 6c 65 	movabs $0x6f7420656c62616e,%rax
  4025c1:	20 74 6f 
  4025c4:	48 89 43 08          	mov    %rax,0x8(%rbx)
  4025c8:	48 b8 20 63 6f 6e 6e 	movabs $0x7463656e6e6f6320,%rax
  4025cf:	65 63 74 
  4025d2:	48 89 43 10          	mov    %rax,0x10(%rbx)
  4025d6:	48 b8 20 74 6f 20 74 	movabs $0x20656874206f7420,%rax
  4025dd:	68 65 20 
  4025e0:	48 89 43 18          	mov    %rax,0x18(%rbx)
  4025e4:	c7 43 20 73 65 72 76 	movl   $0x76726573,0x20(%rbx)
  4025eb:	66 c7 43 24 65 72    	movw   $0x7265,0x24(%rbx)
  4025f1:	c6 43 26 00          	movb   $0x0,0x26(%rbx)
  4025f5:	89 ef                	mov    %ebp,%edi
  4025f7:	e8 24 e7 ff ff       	callq  400d20 <close@plt>
  4025fc:	b8 ff ff ff ff       	mov    $0xffffffff,%eax
  402601:	e9 3c 05 00 00       	jmpq   402b42 <submitr+0x710>
  402606:	48 c7 c6 ff ff ff ff 	mov    $0xffffffffffffffff,%rsi
  40260d:	b8 00 00 00 00       	mov    $0x0,%eax
  402612:	48 89 f1             	mov    %rsi,%rcx
  402615:	4c 89 ef             	mov    %r13,%rdi
  402618:	f2 ae                	repnz scas %es:(%rdi),%al
  40261a:	48 89 ca             	mov    %rcx,%rdx
  40261d:	48 f7 d2             	not    %rdx
  402620:	48 89 f1             	mov    %rsi,%rcx
  402623:	4c 89 ff             	mov    %r15,%rdi
  402626:	f2 ae                	repnz scas %es:(%rdi),%al
  402628:	48 f7 d1             	not    %rcx
  40262b:	49 89 c8             	mov    %rcx,%r8
  40262e:	48 89 f1             	mov    %rsi,%rcx
  402631:	4c 89 f7             	mov    %r14,%rdi
  402634:	f2 ae                	repnz scas %es:(%rdi),%al
  402636:	48 f7 d1             	not    %rcx
  402639:	4d 8d 44 08 fe       	lea    -0x2(%r8,%rcx,1),%r8
  40263e:	48 89 f1             	mov    %rsi,%rcx
  402641:	48 8b 7c 24 08       	mov    0x8(%rsp),%rdi
  402646:	f2 ae                	repnz scas %es:(%rdi),%al
  402648:	48 89 c8             	mov    %rcx,%rax
  40264b:	48 f7 d0             	not    %rax
  40264e:	49 8d 4c 00 ff       	lea    -0x1(%r8,%rax,1),%rcx
  402653:	48 8d 44 52 fd       	lea    -0x3(%rdx,%rdx,2),%rax
  402658:	48 8d 84 01 80 00 00 	lea    0x80(%rcx,%rax,1),%rax
  40265f:	00 
  402660:	48 3d 00 20 00 00    	cmp    $0x2000,%rax
  402666:	76 72                	jbe    4026da <submitr+0x2a8>
  402668:	48 b8 45 72 72 6f 72 	movabs $0x52203a726f727245,%rax
  40266f:	3a 20 52 
  402672:	48 89 03             	mov    %rax,(%rbx)
  402675:	48 b8 65 73 75 6c 74 	movabs $0x747320746c757365,%rax
  40267c:	20 73 74 
  40267f:	48 89 43 08          	mov    %rax,0x8(%rbx)
  402683:	48 b8 72 69 6e 67 20 	movabs $0x6f6f7420676e6972,%rax
  40268a:	74 6f 6f 
  40268d:	48 89 43 10          	mov    %rax,0x10(%rbx)
  402691:	48 b8 20 6c 61 72 67 	movabs $0x202e656772616c20,%rax
  402698:	65 2e 20 
  40269b:	48 89 43 18          	mov    %rax,0x18(%rbx)
  40269f:	48 b8 49 6e 63 72 65 	movabs $0x6573616572636e49,%rax
  4026a6:	61 73 65 
  4026a9:	48 89 43 20          	mov    %rax,0x20(%rbx)
  4026ad:	48 b8 20 53 55 42 4d 	movabs $0x5254494d42555320,%rax
  4026b4:	49 54 52 
  4026b7:	48 89 43 28          	mov    %rax,0x28(%rbx)
  4026bb:	48 b8 5f 4d 41 58 42 	movabs $0x46554258414d5f,%rax
  4026c2:	55 46 00 
  4026c5:	48 89 43 30          	mov    %rax,0x30(%rbx)
  4026c9:	89 ef                	mov    %ebp,%edi
  4026cb:	e8 50 e6 ff ff       	callq  400d20 <close@plt>
  4026d0:	b8 ff ff ff ff       	mov    $0xffffffff,%eax
  4026d5:	e9 68 04 00 00       	jmpq   402b42 <submitr+0x710>
  4026da:	48 8d b4 24 40 40 00 	lea    0x4040(%rsp),%rsi
  4026e1:	00 
  4026e2:	b9 00 04 00 00       	mov    $0x400,%ecx
  4026e7:	b8 00 00 00 00       	mov    $0x0,%eax
  4026ec:	48 89 f7             	mov    %rsi,%rdi
  4026ef:	f3 48 ab             	rep stos %rax,%es:(%rdi)
  4026f2:	4c 89 ef             	mov    %r13,%rdi
  4026f5:	e8 2b fc ff ff       	callq  402325 <urlencode>
  4026fa:	85 c0                	test   %eax,%eax
  4026fc:	0f 89 8a 00 00 00    	jns    40278c <submitr+0x35a>
  402702:	48 b8 45 72 72 6f 72 	movabs $0x52203a726f727245,%rax
  402709:	3a 20 52 
  40270c:	48 89 03             	mov    %rax,(%rbx)
  40270f:	48 b8 65 73 75 6c 74 	movabs $0x747320746c757365,%rax
  402716:	20 73 74 
  402719:	48 89 43 08          	mov    %rax,0x8(%rbx)
  40271d:	48 b8 72 69 6e 67 20 	movabs $0x6e6f6320676e6972,%rax
  402724:	63 6f 6e 
  402727:	48 89 43 10          	mov    %rax,0x10(%rbx)
  40272b:	48 b8 74 61 69 6e 73 	movabs $0x6e6120736e696174,%rax
  402732:	20 61 6e 
  402735:	48 89 43 18          	mov    %rax,0x18(%rbx)
  402739:	48 b8 20 69 6c 6c 65 	movabs $0x6c6167656c6c6920,%rax
  402740:	67 61 6c 
  402743:	48 89 43 20          	mov    %rax,0x20(%rbx)
  402747:	48 b8 20 6f 72 20 75 	movabs $0x72706e7520726f20,%rax
  40274e:	6e 70 72 
  402751:	48 89 43 28          	mov    %rax,0x28(%rbx)
  402755:	48 b8 69 6e 74 61 62 	movabs $0x20656c6261746e69,%rax
  40275c:	6c 65 20 
  40275f:	48 89 43 30          	mov    %rax,0x30(%rbx)
  402763:	48 b8 63 68 61 72 61 	movabs $0x6574636172616863,%rax
  40276a:	63 74 65 
  40276d:	48 89 43 38          	mov    %rax,0x38(%rbx)
  402771:	66 c7 43 40 72 2e    	movw   $0x2e72,0x40(%rbx)
  402777:	c6 43 42 00          	movb   $0x0,0x42(%rbx)
  40277b:	89 ef                	mov    %ebp,%edi
  40277d:	e8 9e e5 ff ff       	callq  400d20 <close@plt>
  402782:	b8 ff ff ff ff       	mov    $0xffffffff,%eax
  402787:	e9 b6 03 00 00       	jmpq   402b42 <submitr+0x710>
  40278c:	4c 8d ac 24 40 20 00 	lea    0x2040(%rsp),%r13
  402793:	00 
  402794:	41 54                	push   %r12
  402796:	48 8d 84 24 48 40 00 	lea    0x4048(%rsp),%rax
  40279d:	00 
  40279e:	50                   	push   %rax
  40279f:	4d 89 f9             	mov    %r15,%r9
  4027a2:	4d 89 f0             	mov    %r14,%r8
  4027a5:	b9 48 36 40 00       	mov    $0x403648,%ecx
  4027aa:	ba 00 20 00 00       	mov    $0x2000,%edx
  4027af:	be 01 00 00 00       	mov    $0x1,%esi
  4027b4:	4c 89 ef             	mov    %r13,%rdi
  4027b7:	b8 00 00 00 00       	mov    $0x0,%eax
  4027bc:	e8 9f e6 ff ff       	callq  400e60 <__sprintf_chk@plt>
  4027c1:	b8 00 00 00 00       	mov    $0x0,%eax
  4027c6:	48 c7 c1 ff ff ff ff 	mov    $0xffffffffffffffff,%rcx
  4027cd:	4c 89 ef             	mov    %r13,%rdi
  4027d0:	f2 ae                	repnz scas %es:(%rdi),%al
  4027d2:	48 f7 d1             	not    %rcx
  4027d5:	48 8d 51 ff          	lea    -0x1(%rcx),%rdx
  4027d9:	4c 89 ee             	mov    %r13,%rsi
  4027dc:	89 ef                	mov    %ebp,%edi
  4027de:	e8 b1 f9 ff ff       	callq  402194 <rio_writen>
  4027e3:	48 83 c4 10          	add    $0x10,%rsp
  4027e7:	48 85 c0             	test   %rax,%rax
  4027ea:	79 6e                	jns    40285a <submitr+0x428>
  4027ec:	48 b8 45 72 72 6f 72 	movabs $0x43203a726f727245,%rax
  4027f3:	3a 20 43 
  4027f6:	48 89 03             	mov    %rax,(%rbx)
  4027f9:	48 b8 6c 69 65 6e 74 	movabs $0x6e7520746e65696c,%rax
  402800:	20 75 6e 
  402803:	48 89 43 08          	mov    %rax,0x8(%rbx)
  402807:	48 b8 61 62 6c 65 20 	movabs $0x206f7420656c6261,%rax
  40280e:	74 6f 20 
  402811:	48 89 43 10          	mov    %rax,0x10(%rbx)
  402815:	48 b8 77 72 69 74 65 	movabs $0x6f74206574697277,%rax
  40281c:	20 74 6f 
  40281f:	48 89 43 18          	mov    %rax,0x18(%rbx)
  402823:	48 b8 20 74 68 65 20 	movabs $0x7365722065687420,%rax
  40282a:	72 65 73 
  40282d:	48 89 43 20          	mov    %rax,0x20(%rbx)
  402831:	48 b8 75 6c 74 20 73 	movabs $0x7672657320746c75,%rax
  402838:	65 72 76 
  40283b:	48 89 43 28          	mov    %rax,0x28(%rbx)
  40283f:	66 c7 43 30 65 72    	movw   $0x7265,0x30(%rbx)
  402845:	c6 43 32 00          	movb   $0x0,0x32(%rbx)
  402849:	89 ef                	mov    %ebp,%edi
  40284b:	e8 d0 e4 ff ff       	callq  400d20 <close@plt>
  402850:	b8 ff ff ff ff       	mov    $0xffffffff,%eax
  402855:	e9 e8 02 00 00       	jmpq   402b42 <submitr+0x710>
  40285a:	89 ee                	mov    %ebp,%esi
  40285c:	48 8d 7c 24 30       	lea    0x30(%rsp),%rdi
  402861:	e8 ee f8 ff ff       	callq  402154 <rio_readinitb>
  402866:	ba 00 20 00 00       	mov    $0x2000,%edx
  40286b:	48 8d b4 24 40 20 00 	lea    0x2040(%rsp),%rsi
  402872:	00 
  402873:	48 8d 7c 24 30       	lea    0x30(%rsp),%rdi
  402878:	e8 fe f9 ff ff       	callq  40227b <rio_readlineb>
  40287d:	48 85 c0             	test   %rax,%rax
  402880:	7f 7d                	jg     4028ff <submitr+0x4cd>
  402882:	48 b8 45 72 72 6f 72 	movabs $0x43203a726f727245,%rax
  402889:	3a 20 43 
  40288c:	48 89 03             	mov    %rax,(%rbx)
  40288f:	48 b8 6c 69 65 6e 74 	movabs $0x6e7520746e65696c,%rax
  402896:	20 75 6e 
  402899:	48 89 43 08          	mov    %rax,0x8(%rbx)
  40289d:	48 b8 61 62 6c 65 20 	movabs $0x206f7420656c6261,%rax
  4028a4:	74 6f 20 
  4028a7:	48 89 43 10          	mov    %rax,0x10(%rbx)
  4028ab:	48 b8 72 65 61 64 20 	movabs $0x7269662064616572,%rax
  4028b2:	66 69 72 
  4028b5:	48 89 43 18          	mov    %rax,0x18(%rbx)
  4028b9:	48 b8 73 74 20 68 65 	movabs $0x6564616568207473,%rax
  4028c0:	61 64 65 
  4028c3:	48 89 43 20          	mov    %rax,0x20(%rbx)
  4028c7:	48 b8 72 20 66 72 6f 	movabs $0x72206d6f72662072,%rax
  4028ce:	6d 20 72 
  4028d1:	48 89 43 28          	mov    %rax,0x28(%rbx)
  4028d5:	48 b8 65 73 75 6c 74 	movabs $0x657320746c757365,%rax
  4028dc:	20 73 65 
  4028df:	48 89 43 30          	mov    %rax,0x30(%rbx)
  4028e3:	c7 43 38 72 76 65 72 	movl   $0x72657672,0x38(%rbx)
  4028ea:	c6 43 3c 00          	movb   $0x0,0x3c(%rbx)
  4028ee:	89 ef                	mov    %ebp,%edi
  4028f0:	e8 2b e4 ff ff       	callq  400d20 <close@plt>
  4028f5:	b8 ff ff ff ff       	mov    $0xffffffff,%eax
  4028fa:	e9 43 02 00 00       	jmpq   402b42 <submitr+0x710>
  4028ff:	4c 8d 84 24 40 80 00 	lea    0x8040(%rsp),%r8
  402906:	00 
  402907:	48 8d 4c 24 1c       	lea    0x1c(%rsp),%rcx
  40290c:	48 8d 94 24 40 60 00 	lea    0x6040(%rsp),%rdx
  402913:	00 
  402914:	be bf 36 40 00       	mov    $0x4036bf,%esi
  402919:	48 8d bc 24 40 20 00 	lea    0x2040(%rsp),%rdi
  402920:	00 
  402921:	b8 00 00 00 00       	mov    $0x0,%eax
  402926:	e8 95 e4 ff ff       	callq  400dc0 <__isoc99_sscanf@plt>
  40292b:	e9 95 00 00 00       	jmpq   4029c5 <submitr+0x593>
  402930:	ba 00 20 00 00       	mov    $0x2000,%edx
  402935:	48 8d b4 24 40 20 00 	lea    0x2040(%rsp),%rsi
  40293c:	00 
  40293d:	48 8d 7c 24 30       	lea    0x30(%rsp),%rdi
  402942:	e8 34 f9 ff ff       	callq  40227b <rio_readlineb>
  402947:	48 85 c0             	test   %rax,%rax
  40294a:	7f 79                	jg     4029c5 <submitr+0x593>
  40294c:	48 b8 45 72 72 6f 72 	movabs $0x43203a726f727245,%rax
  402953:	3a 20 43 
  402956:	48 89 03             	mov    %rax,(%rbx)
  402959:	48 b8 6c 69 65 6e 74 	movabs $0x6e7520746e65696c,%rax
  402960:	20 75 6e 
  402963:	48 89 43 08          	mov    %rax,0x8(%rbx)
  402967:	48 b8 61 62 6c 65 20 	movabs $0x206f7420656c6261,%rax
  40296e:	74 6f 20 
  402971:	48 89 43 10          	mov    %rax,0x10(%rbx)
  402975:	48 b8 72 65 61 64 20 	movabs $0x6165682064616572,%rax
  40297c:	68 65 61 
  40297f:	48 89 43 18          	mov    %rax,0x18(%rbx)
  402983:	48 b8 64 65 72 73 20 	movabs $0x6f72662073726564,%rax
  40298a:	66 72 6f 
  40298d:	48 89 43 20          	mov    %rax,0x20(%rbx)
  402991:	48 b8 6d 20 74 68 65 	movabs $0x657220656874206d,%rax
  402998:	20 72 65 
  40299b:	48 89 43 28          	mov    %rax,0x28(%rbx)
  40299f:	48 b8 73 75 6c 74 20 	movabs $0x72657320746c7573,%rax
  4029a6:	73 65 72 
  4029a9:	48 89 43 30          	mov    %rax,0x30(%rbx)
  4029ad:	c7 43 38 76 65 72 00 	movl   $0x726576,0x38(%rbx)
  4029b4:	89 ef                	mov    %ebp,%edi
  4029b6:	e8 65 e3 ff ff       	callq  400d20 <close@plt>
  4029bb:	b8 ff ff ff ff       	mov    $0xffffffff,%eax
  4029c0:	e9 7d 01 00 00       	jmpq   402b42 <submitr+0x710>
  4029c5:	48 8d b4 24 40 20 00 	lea    0x2040(%rsp),%rsi
  4029cc:	00 
  4029cd:	bf d6 36 40 00       	mov    $0x4036d6,%edi
  4029d2:	b9 03 00 00 00       	mov    $0x3,%ecx
  4029d7:	f3 a6                	repz cmpsb %es:(%rdi),%ds:(%rsi)
  4029d9:	0f 97 c2             	seta   %dl
  4029dc:	0f 92 c0             	setb   %al
  4029df:	38 c2                	cmp    %al,%dl
  4029e1:	0f 85 49 ff ff ff    	jne    402930 <submitr+0x4fe>
  4029e7:	ba 00 20 00 00       	mov    $0x2000,%edx
  4029ec:	48 8d b4 24 40 20 00 	lea    0x2040(%rsp),%rsi
  4029f3:	00 
  4029f4:	48 8d 7c 24 30       	lea    0x30(%rsp),%rdi
  4029f9:	e8 7d f8 ff ff       	callq  40227b <rio_readlineb>
  4029fe:	48 85 c0             	test   %rax,%rax
  402a01:	0f 8f 83 00 00 00    	jg     402a8a <submitr+0x658>
  402a07:	48 b8 45 72 72 6f 72 	movabs $0x43203a726f727245,%rax
  402a0e:	3a 20 43 
  402a11:	48 89 03             	mov    %rax,(%rbx)
  402a14:	48 b8 6c 69 65 6e 74 	movabs $0x6e7520746e65696c,%rax
  402a1b:	20 75 6e 
  402a1e:	48 89 43 08          	mov    %rax,0x8(%rbx)
  402a22:	48 b8 61 62 6c 65 20 	movabs $0x206f7420656c6261,%rax
  402a29:	74 6f 20 
  402a2c:	48 89 43 10          	mov    %rax,0x10(%rbx)
  402a30:	48 b8 72 65 61 64 20 	movabs $0x6174732064616572,%rax
  402a37:	73 74 61 
  402a3a:	48 89 43 18          	mov    %rax,0x18(%rbx)
  402a3e:	48 b8 74 75 73 20 6d 	movabs $0x7373656d20737574,%rax
  402a45:	65 73 73 
  402a48:	48 89 43 20          	mov    %rax,0x20(%rbx)
  402a4c:	48 b8 61 67 65 20 66 	movabs $0x6d6f726620656761,%rax
  402a53:	72 6f 6d 
  402a56:	48 89 43 28          	mov    %rax,0x28(%rbx)
  402a5a:	48 b8 20 72 65 73 75 	movabs $0x20746c7573657220,%rax
  402a61:	6c 74 20 
  402a64:	48 89 43 30          	mov    %rax,0x30(%rbx)
  402a68:	c7 43 38 73 65 72 76 	movl   $0x76726573,0x38(%rbx)
  402a6f:	66 c7 43 3c 65 72    	movw   $0x7265,0x3c(%rbx)
  402a75:	c6 43 3e 00          	movb   $0x0,0x3e(%rbx)
  402a79:	89 ef                	mov    %ebp,%edi
  402a7b:	e8 a0 e2 ff ff       	callq  400d20 <close@plt>
  402a80:	b8 ff ff ff ff       	mov    $0xffffffff,%eax
  402a85:	e9 b8 00 00 00       	jmpq   402b42 <submitr+0x710>
  402a8a:	44 8b 44 24 1c       	mov    0x1c(%rsp),%r8d
  402a8f:	41 81 f8 c8 00 00 00 	cmp    $0xc8,%r8d
  402a96:	74 34                	je     402acc <submitr+0x69a>
  402a98:	4c 8d 8c 24 40 80 00 	lea    0x8040(%rsp),%r9
  402a9f:	00 
  402aa0:	b9 88 36 40 00       	mov    $0x403688,%ecx
  402aa5:	48 c7 c2 ff ff ff ff 	mov    $0xffffffffffffffff,%rdx
  402aac:	be 01 00 00 00       	mov    $0x1,%esi
  402ab1:	48 89 df             	mov    %rbx,%rdi
  402ab4:	b8 00 00 00 00       	mov    $0x0,%eax
  402ab9:	e8 a2 e3 ff ff       	callq  400e60 <__sprintf_chk@plt>
  402abe:	89 ef                	mov    %ebp,%edi
  402ac0:	e8 5b e2 ff ff       	callq  400d20 <close@plt>
  402ac5:	b8 ff ff ff ff       	mov    $0xffffffff,%eax
  402aca:	eb 76                	jmp    402b42 <submitr+0x710>
  402acc:	48 8d b4 24 40 20 00 	lea    0x2040(%rsp),%rsi
  402ad3:	00 
  402ad4:	48 89 df             	mov    %rbx,%rdi
  402ad7:	e8 d4 e1 ff ff       	callq  400cb0 <strcpy@plt>
  402adc:	89 ef                	mov    %ebp,%edi
  402ade:	e8 3d e2 ff ff       	callq  400d20 <close@plt>
  402ae3:	bf d0 36 40 00       	mov    $0x4036d0,%edi
  402ae8:	b9 04 00 00 00       	mov    $0x4,%ecx
  402aed:	48 89 de             	mov    %rbx,%rsi
  402af0:	f3 a6                	repz cmpsb %es:(%rdi),%ds:(%rsi)
  402af2:	0f 97 c0             	seta   %al
  402af5:	0f 92 c2             	setb   %dl
  402af8:	29 d0                	sub    %edx,%eax
  402afa:	0f be c0             	movsbl %al,%eax
  402afd:	85 c0                	test   %eax,%eax
  402aff:	74 41                	je     402b42 <submitr+0x710>
  402b01:	bf d4 36 40 00       	mov    $0x4036d4,%edi
  402b06:	b9 05 00 00 00       	mov    $0x5,%ecx
  402b0b:	48 89 de             	mov    %rbx,%rsi
  402b0e:	f3 a6                	repz cmpsb %es:(%rdi),%ds:(%rsi)
  402b10:	0f 97 c0             	seta   %al
  402b13:	0f 92 c2             	setb   %dl
  402b16:	29 d0                	sub    %edx,%eax
  402b18:	0f be c0             	movsbl %al,%eax
  402b1b:	85 c0                	test   %eax,%eax
  402b1d:	74 23                	je     402b42 <submitr+0x710>
  402b1f:	bf d9 36 40 00       	mov    $0x4036d9,%edi
  402b24:	b9 03 00 00 00       	mov    $0x3,%ecx
  402b29:	48 89 de             	mov    %rbx,%rsi
  402b2c:	f3 a6                	repz cmpsb %es:(%rdi),%ds:(%rsi)
  402b2e:	0f 97 c0             	seta   %al
  402b31:	0f 92 c2             	setb   %dl
  402b34:	29 d0                	sub    %edx,%eax
  402b36:	0f be c0             	movsbl %al,%eax
  402b39:	85 c0                	test   %eax,%eax
  402b3b:	74 05                	je     402b42 <submitr+0x710>
  402b3d:	b8 ff ff ff ff       	mov    $0xffffffff,%eax
  402b42:	48 8b 9c 24 48 a0 00 	mov    0xa048(%rsp),%rbx
  402b49:	00 
  402b4a:	64 48 33 1c 25 28 00 	xor    %fs:0x28,%rbx
  402b51:	00 00 
  402b53:	74 05                	je     402b5a <submitr+0x728>
  402b55:	e8 86 e1 ff ff       	callq  400ce0 <__stack_chk_fail@plt>
  402b5a:	48 81 c4 58 a0 00 00 	add    $0xa058,%rsp
  402b61:	5b                   	pop    %rbx
  402b62:	5d                   	pop    %rbp
  402b63:	41 5c                	pop    %r12
  402b65:	41 5d                	pop    %r13
  402b67:	41 5e                	pop    %r14
  402b69:	41 5f                	pop    %r15
  402b6b:	c3                   	retq   

0000000000402b6c <init_timeout>:
  402b6c:	85 ff                	test   %edi,%edi
  402b6e:	74 23                	je     402b93 <init_timeout+0x27>
  402b70:	53                   	push   %rbx
  402b71:	89 fb                	mov    %edi,%ebx
  402b73:	85 ff                	test   %edi,%edi
  402b75:	79 05                	jns    402b7c <init_timeout+0x10>
  402b77:	bb 00 00 00 00       	mov    $0x0,%ebx
  402b7c:	be 66 21 40 00       	mov    $0x402166,%esi
  402b81:	bf 0e 00 00 00       	mov    $0xe,%edi
  402b86:	e8 b5 e1 ff ff       	callq  400d40 <signal@plt>
  402b8b:	89 df                	mov    %ebx,%edi
  402b8d:	e8 7e e1 ff ff       	callq  400d10 <alarm@plt>
  402b92:	5b                   	pop    %rbx
  402b93:	f3 c3                	repz retq 

0000000000402b95 <init_driver>:
  402b95:	55                   	push   %rbp
  402b96:	53                   	push   %rbx
  402b97:	48 83 ec 28          	sub    $0x28,%rsp
  402b9b:	48 89 fd             	mov    %rdi,%rbp
  402b9e:	64 48 8b 04 25 28 00 	mov    %fs:0x28,%rax
  402ba5:	00 00 
  402ba7:	48 89 44 24 18       	mov    %rax,0x18(%rsp)
  402bac:	31 c0                	xor    %eax,%eax
  402bae:	be 01 00 00 00       	mov    $0x1,%esi
  402bb3:	bf 0d 00 00 00       	mov    $0xd,%edi
  402bb8:	e8 83 e1 ff ff       	callq  400d40 <signal@plt>
  402bbd:	be 01 00 00 00       	mov    $0x1,%esi
  402bc2:	bf 1d 00 00 00       	mov    $0x1d,%edi
  402bc7:	e8 74 e1 ff ff       	callq  400d40 <signal@plt>
  402bcc:	be 01 00 00 00       	mov    $0x1,%esi
  402bd1:	bf 1d 00 00 00       	mov    $0x1d,%edi
  402bd6:	e8 65 e1 ff ff       	callq  400d40 <signal@plt>
  402bdb:	ba 00 00 00 00       	mov    $0x0,%edx
  402be0:	be 01 00 00 00       	mov    $0x1,%esi
  402be5:	bf 02 00 00 00       	mov    $0x2,%edi
  402bea:	e8 81 e2 ff ff       	callq  400e70 <socket@plt>
  402bef:	85 c0                	test   %eax,%eax
  402bf1:	79 4f                	jns    402c42 <init_driver+0xad>
  402bf3:	48 b8 45 72 72 6f 72 	movabs $0x43203a726f727245,%rax
  402bfa:	3a 20 43 
  402bfd:	48 89 45 00          	mov    %rax,0x0(%rbp)
  402c01:	48 b8 6c 69 65 6e 74 	movabs $0x6e7520746e65696c,%rax
  402c08:	20 75 6e 
  402c0b:	48 89 45 08          	mov    %rax,0x8(%rbp)
  402c0f:	48 b8 61 62 6c 65 20 	movabs $0x206f7420656c6261,%rax
  402c16:	74 6f 20 
  402c19:	48 89 45 10          	mov    %rax,0x10(%rbp)
  402c1d:	48 b8 63 72 65 61 74 	movabs $0x7320657461657263,%rax
  402c24:	65 20 73 
  402c27:	48 89 45 18          	mov    %rax,0x18(%rbp)
  402c2b:	c7 45 20 6f 63 6b 65 	movl   $0x656b636f,0x20(%rbp)
  402c32:	66 c7 45 24 74 00    	movw   $0x74,0x24(%rbp)
  402c38:	b8 ff ff ff ff       	mov    $0xffffffff,%eax
  402c3d:	e9 2a 01 00 00       	jmpq   402d6c <init_driver+0x1d7>
  402c42:	89 c3                	mov    %eax,%ebx
  402c44:	bf eb 31 40 00       	mov    $0x4031eb,%edi
  402c49:	e8 02 e1 ff ff       	callq  400d50 <gethostbyname@plt>
  402c4e:	48 85 c0             	test   %rax,%rax
  402c51:	75 68                	jne    402cbb <init_driver+0x126>
  402c53:	48 b8 45 72 72 6f 72 	movabs $0x44203a726f727245,%rax
  402c5a:	3a 20 44 
  402c5d:	48 89 45 00          	mov    %rax,0x0(%rbp)
  402c61:	48 b8 4e 53 20 69 73 	movabs $0x6e7520736920534e,%rax
  402c68:	20 75 6e 
  402c6b:	48 89 45 08          	mov    %rax,0x8(%rbp)
  402c6f:	48 b8 61 62 6c 65 20 	movabs $0x206f7420656c6261,%rax
  402c76:	74 6f 20 
  402c79:	48 89 45 10          	mov    %rax,0x10(%rbp)
  402c7d:	48 b8 72 65 73 6f 6c 	movabs $0x2065766c6f736572,%rax
  402c84:	76 65 20 
  402c87:	48 89 45 18          	mov    %rax,0x18(%rbp)
  402c8b:	48 b8 73 65 72 76 65 	movabs $0x6120726576726573,%rax
  402c92:	72 20 61 
  402c95:	48 89 45 20          	mov    %rax,0x20(%rbp)
  402c99:	c7 45 28 64 64 72 65 	movl   $0x65726464,0x28(%rbp)
  402ca0:	66 c7 45 2c 73 73    	movw   $0x7373,0x2c(%rbp)
  402ca6:	c6 45 2e 00          	movb   $0x0,0x2e(%rbp)
  402caa:	89 df                	mov    %ebx,%edi
  402cac:	e8 6f e0 ff ff       	callq  400d20 <close@plt>
  402cb1:	b8 ff ff ff ff       	mov    $0xffffffff,%eax
  402cb6:	e9 b1 00 00 00       	jmpq   402d6c <init_driver+0x1d7>
  402cbb:	48 c7 04 24 00 00 00 	movq   $0x0,(%rsp)
  402cc2:	00 
  402cc3:	48 c7 44 24 08 00 00 	movq   $0x0,0x8(%rsp)
  402cca:	00 00 
  402ccc:	66 c7 04 24 02 00    	movw   $0x2,(%rsp)
  402cd2:	48 63 50 14          	movslq 0x14(%rax),%rdx
  402cd6:	48 8b 40 18          	mov    0x18(%rax),%rax
  402cda:	48 8b 30             	mov    (%rax),%rsi
  402cdd:	48 8d 7c 24 04       	lea    0x4(%rsp),%rdi
  402ce2:	b9 0c 00 00 00       	mov    $0xc,%ecx
  402ce7:	e8 74 e0 ff ff       	callq  400d60 <__memmove_chk@plt>
  402cec:	66 c7 44 24 02 3b 70 	movw   $0x703b,0x2(%rsp)
  402cf3:	ba 10 00 00 00       	mov    $0x10,%edx
  402cf8:	48 89 e6             	mov    %rsp,%rsi
  402cfb:	89 df                	mov    %ebx,%edi
  402cfd:	e8 3e e1 ff ff       	callq  400e40 <connect@plt>
  402d02:	85 c0                	test   %eax,%eax
  402d04:	79 50                	jns    402d56 <init_driver+0x1c1>
  402d06:	48 b8 45 72 72 6f 72 	movabs $0x55203a726f727245,%rax
  402d0d:	3a 20 55 
  402d10:	48 89 45 00          	mov    %rax,0x0(%rbp)
  402d14:	48 b8 6e 61 62 6c 65 	movabs $0x6f7420656c62616e,%rax
  402d1b:	20 74 6f 
  402d1e:	48 89 45 08          	mov    %rax,0x8(%rbp)
  402d22:	48 b8 20 63 6f 6e 6e 	movabs $0x7463656e6e6f6320,%rax
  402d29:	65 63 74 
  402d2c:	48 89 45 10          	mov    %rax,0x10(%rbp)
  402d30:	48 b8 20 74 6f 20 73 	movabs $0x76726573206f7420,%rax
  402d37:	65 72 76 
  402d3a:	48 89 45 18          	mov    %rax,0x18(%rbp)
  402d3e:	66 c7 45 20 65 72    	movw   $0x7265,0x20(%rbp)
  402d44:	c6 45 22 00          	movb   $0x0,0x22(%rbp)
  402d48:	89 df                	mov    %ebx,%edi
  402d4a:	e8 d1 df ff ff       	callq  400d20 <close@plt>
  402d4f:	b8 ff ff ff ff       	mov    $0xffffffff,%eax
  402d54:	eb 16                	jmp    402d6c <init_driver+0x1d7>
  402d56:	89 df                	mov    %ebx,%edi
  402d58:	e8 c3 df ff ff       	callq  400d20 <close@plt>
  402d5d:	66 c7 45 00 4f 4b    	movw   $0x4b4f,0x0(%rbp)
  402d63:	c6 45 02 00          	movb   $0x0,0x2(%rbp)
  402d67:	b8 00 00 00 00       	mov    $0x0,%eax
  402d6c:	48 8b 4c 24 18       	mov    0x18(%rsp),%rcx
  402d71:	64 48 33 0c 25 28 00 	xor    %fs:0x28,%rcx
  402d78:	00 00 
  402d7a:	74 05                	je     402d81 <init_driver+0x1ec>
  402d7c:	e8 5f df ff ff       	callq  400ce0 <__stack_chk_fail@plt>
  402d81:	48 83 c4 28          	add    $0x28,%rsp
  402d85:	5b                   	pop    %rbx
  402d86:	5d                   	pop    %rbp
  402d87:	c3                   	retq   

0000000000402d88 <driver_post>:
  402d88:	53                   	push   %rbx
  402d89:	4c 89 cb             	mov    %r9,%rbx
  402d8c:	45 85 c0             	test   %r8d,%r8d
  402d8f:	74 27                	je     402db8 <driver_post+0x30>
  402d91:	48 89 ca             	mov    %rcx,%rdx
  402d94:	be dc 36 40 00       	mov    $0x4036dc,%esi
  402d99:	bf 01 00 00 00       	mov    $0x1,%edi
  402d9e:	b8 00 00 00 00       	mov    $0x0,%eax
  402da3:	e8 38 e0 ff ff       	callq  400de0 <__printf_chk@plt>
  402da8:	66 c7 03 4f 4b       	movw   $0x4b4f,(%rbx)
  402dad:	c6 43 02 00          	movb   $0x0,0x2(%rbx)
  402db1:	b8 00 00 00 00       	mov    $0x0,%eax
  402db6:	eb 3f                	jmp    402df7 <driver_post+0x6f>
  402db8:	48 85 ff             	test   %rdi,%rdi
  402dbb:	74 2c                	je     402de9 <driver_post+0x61>
  402dbd:	80 3f 00             	cmpb   $0x0,(%rdi)
  402dc0:	74 27                	je     402de9 <driver_post+0x61>
  402dc2:	48 83 ec 08          	sub    $0x8,%rsp
  402dc6:	41 51                	push   %r9
  402dc8:	49 89 c9             	mov    %rcx,%r9
  402dcb:	49 89 d0             	mov    %rdx,%r8
  402dce:	48 89 f9             	mov    %rdi,%rcx
  402dd1:	48 89 f2             	mov    %rsi,%rdx
  402dd4:	be 70 3b 00 00       	mov    $0x3b70,%esi
  402dd9:	bf eb 31 40 00       	mov    $0x4031eb,%edi
  402dde:	e8 4f f6 ff ff       	callq  402432 <submitr>
  402de3:	48 83 c4 10          	add    $0x10,%rsp
  402de7:	eb 0e                	jmp    402df7 <driver_post+0x6f>
  402de9:	66 c7 03 4f 4b       	movw   $0x4b4f,(%rbx)
  402dee:	c6 43 02 00          	movb   $0x0,0x2(%rbx)
  402df2:	b8 00 00 00 00       	mov    $0x0,%eax
  402df7:	5b                   	pop    %rbx
  402df8:	c3                   	retq   

0000000000402df9 <check>:
  402df9:	89 f8                	mov    %edi,%eax
  402dfb:	c1 e8 1c             	shr    $0x1c,%eax
  402dfe:	85 c0                	test   %eax,%eax
  402e00:	74 1d                	je     402e1f <check+0x26>
  402e02:	b9 00 00 00 00       	mov    $0x0,%ecx
  402e07:	eb 0b                	jmp    402e14 <check+0x1b>
  402e09:	89 f8                	mov    %edi,%eax
  402e0b:	d3 e8                	shr    %cl,%eax
  402e0d:	3c 0a                	cmp    $0xa,%al
  402e0f:	74 14                	je     402e25 <check+0x2c>
  402e11:	83 c1 08             	add    $0x8,%ecx
  402e14:	83 f9 1f             	cmp    $0x1f,%ecx
  402e17:	7e f0                	jle    402e09 <check+0x10>
  402e19:	b8 01 00 00 00       	mov    $0x1,%eax
  402e1e:	c3                   	retq   
  402e1f:	b8 00 00 00 00       	mov    $0x0,%eax
  402e24:	c3                   	retq   
  402e25:	b8 00 00 00 00       	mov    $0x0,%eax
  402e2a:	c3                   	retq   

0000000000402e2b <gencookie>:
  402e2b:	53                   	push   %rbx
  402e2c:	83 c7 01             	add    $0x1,%edi
  402e2f:	e8 5c de ff ff       	callq  400c90 <srandom@plt>
  402e34:	e8 67 df ff ff       	callq  400da0 <random@plt>
  402e39:	89 c3                	mov    %eax,%ebx
  402e3b:	89 c7                	mov    %eax,%edi
  402e3d:	e8 b7 ff ff ff       	callq  402df9 <check>
  402e42:	85 c0                	test   %eax,%eax
  402e44:	74 ee                	je     402e34 <gencookie+0x9>
  402e46:	89 d8                	mov    %ebx,%eax
  402e48:	5b                   	pop    %rbx
  402e49:	c3                   	retq   
  402e4a:	66 0f 1f 44 00 00    	nopw   0x0(%rax,%rax,1)

0000000000402e50 <__libc_csu_init>:
  402e50:	41 57                	push   %r15
  402e52:	41 56                	push   %r14
  402e54:	49 89 d7             	mov    %rdx,%r15
  402e57:	41 55                	push   %r13
  402e59:	41 54                	push   %r12
  402e5b:	4c 8d 25 a6 0f 20 00 	lea    0x200fa6(%rip),%r12        # 603e08 <__frame_dummy_init_array_entry>
  402e62:	55                   	push   %rbp
  402e63:	48 8d 2d a6 0f 20 00 	lea    0x200fa6(%rip),%rbp        # 603e10 <__init_array_end>
  402e6a:	53                   	push   %rbx
  402e6b:	41 89 fd             	mov    %edi,%r13d
  402e6e:	49 89 f6             	mov    %rsi,%r14
  402e71:	4c 29 e5             	sub    %r12,%rbp
  402e74:	48 83 ec 08          	sub    $0x8,%rsp
  402e78:	48 c1 fd 03          	sar    $0x3,%rbp
  402e7c:	e8 c7 dd ff ff       	callq  400c48 <_init>
  402e81:	48 85 ed             	test   %rbp,%rbp
  402e84:	74 20                	je     402ea6 <__libc_csu_init+0x56>
  402e86:	31 db                	xor    %ebx,%ebx
  402e88:	0f 1f 84 00 00 00 00 	nopl   0x0(%rax,%rax,1)
  402e8f:	00 
  402e90:	4c 89 fa             	mov    %r15,%rdx
  402e93:	4c 89 f6             	mov    %r14,%rsi
  402e96:	44 89 ef             	mov    %r13d,%edi
  402e99:	41 ff 14 dc          	callq  *(%r12,%rbx,8)
  402e9d:	48 83 c3 01          	add    $0x1,%rbx
  402ea1:	48 39 dd             	cmp    %rbx,%rbp
  402ea4:	75 ea                	jne    402e90 <__libc_csu_init+0x40>
  402ea6:	48 83 c4 08          	add    $0x8,%rsp
  402eaa:	5b                   	pop    %rbx
  402eab:	5d                   	pop    %rbp
  402eac:	41 5c                	pop    %r12
  402eae:	41 5d                	pop    %r13
  402eb0:	41 5e                	pop    %r14
  402eb2:	41 5f                	pop    %r15
  402eb4:	c3                   	retq   
  402eb5:	90                   	nop
  402eb6:	66 2e 0f 1f 84 00 00 	nopw   %cs:0x0(%rax,%rax,1)
  402ebd:	00 00 00 

0000000000402ec0 <__libc_csu_fini>:
  402ec0:	f3 c3                	repz retq 

Disassembly of section .fini:

0000000000402ec4 <_fini>:
  402ec4:	48 83 ec 08          	sub    $0x8,%rsp
  402ec8:	48 83 c4 08          	add    $0x8,%rsp
  402ecc:	c3                   	retq   
