
rtarget:     file format elf64-x86-64


Disassembly of section .init:

0000000000400c48 <_init>:
  400c48:	48 83 ec 08          	sub    $0x8,%rsp
  400c4c:	48 8b 05 a5 43 20 00 	mov    0x2043a5(%rip),%rax        # 604ff8 <__gmon_start__>
  400c53:	48 85 c0             	test   %rax,%rax
  400c56:	74 02                	je     400c5a <_init+0x12>
  400c58:	ff d0                	callq  *%rax
  400c5a:	48 83 c4 08          	add    $0x8,%rsp
  400c5e:	c3                   	retq   

Disassembly of section .plt:

0000000000400c60 <.plt>:
  400c60:	ff 35 a2 43 20 00    	pushq  0x2043a2(%rip)        # 605008 <_GLOBAL_OFFSET_TABLE_+0x8>
  400c66:	ff 25 a4 43 20 00    	jmpq   *0x2043a4(%rip)        # 605010 <_GLOBAL_OFFSET_TABLE_+0x10>
  400c6c:	0f 1f 40 00          	nopl   0x0(%rax)

0000000000400c70 <strcasecmp@plt>:
  400c70:	ff 25 a2 43 20 00    	jmpq   *0x2043a2(%rip)        # 605018 <strcasecmp@GLIBC_2.2.5>
  400c76:	68 00 00 00 00       	pushq  $0x0
  400c7b:	e9 e0 ff ff ff       	jmpq   400c60 <.plt>

0000000000400c80 <__errno_location@plt>:
  400c80:	ff 25 9a 43 20 00    	jmpq   *0x20439a(%rip)        # 605020 <__errno_location@GLIBC_2.2.5>
  400c86:	68 01 00 00 00       	pushq  $0x1
  400c8b:	e9 d0 ff ff ff       	jmpq   400c60 <.plt>

0000000000400c90 <srandom@plt>:
  400c90:	ff 25 92 43 20 00    	jmpq   *0x204392(%rip)        # 605028 <srandom@GLIBC_2.2.5>
  400c96:	68 02 00 00 00       	pushq  $0x2
  400c9b:	e9 c0 ff ff ff       	jmpq   400c60 <.plt>

0000000000400ca0 <strncmp@plt>:
  400ca0:	ff 25 8a 43 20 00    	jmpq   *0x20438a(%rip)        # 605030 <strncmp@GLIBC_2.2.5>
  400ca6:	68 03 00 00 00       	pushq  $0x3
  400cab:	e9 b0 ff ff ff       	jmpq   400c60 <.plt>

0000000000400cb0 <strcpy@plt>:
  400cb0:	ff 25 82 43 20 00    	jmpq   *0x204382(%rip)        # 605038 <strcpy@GLIBC_2.2.5>
  400cb6:	68 04 00 00 00       	pushq  $0x4
  400cbb:	e9 a0 ff ff ff       	jmpq   400c60 <.plt>

0000000000400cc0 <puts@plt>:
  400cc0:	ff 25 7a 43 20 00    	jmpq   *0x20437a(%rip)        # 605040 <puts@GLIBC_2.2.5>
  400cc6:	68 05 00 00 00       	pushq  $0x5
  400ccb:	e9 90 ff ff ff       	jmpq   400c60 <.plt>

0000000000400cd0 <write@plt>:
  400cd0:	ff 25 72 43 20 00    	jmpq   *0x204372(%rip)        # 605048 <write@GLIBC_2.2.5>
  400cd6:	68 06 00 00 00       	pushq  $0x6
  400cdb:	e9 80 ff ff ff       	jmpq   400c60 <.plt>

0000000000400ce0 <__stack_chk_fail@plt>:
  400ce0:	ff 25 6a 43 20 00    	jmpq   *0x20436a(%rip)        # 605050 <__stack_chk_fail@GLIBC_2.4>
  400ce6:	68 07 00 00 00       	pushq  $0x7
  400ceb:	e9 70 ff ff ff       	jmpq   400c60 <.plt>

0000000000400cf0 <mmap@plt>:
  400cf0:	ff 25 62 43 20 00    	jmpq   *0x204362(%rip)        # 605058 <mmap@GLIBC_2.2.5>
  400cf6:	68 08 00 00 00       	pushq  $0x8
  400cfb:	e9 60 ff ff ff       	jmpq   400c60 <.plt>

0000000000400d00 <memset@plt>:
  400d00:	ff 25 5a 43 20 00    	jmpq   *0x20435a(%rip)        # 605060 <memset@GLIBC_2.2.5>
  400d06:	68 09 00 00 00       	pushq  $0x9
  400d0b:	e9 50 ff ff ff       	jmpq   400c60 <.plt>

0000000000400d10 <alarm@plt>:
  400d10:	ff 25 52 43 20 00    	jmpq   *0x204352(%rip)        # 605068 <alarm@GLIBC_2.2.5>
  400d16:	68 0a 00 00 00       	pushq  $0xa
  400d1b:	e9 40 ff ff ff       	jmpq   400c60 <.plt>

0000000000400d20 <close@plt>:
  400d20:	ff 25 4a 43 20 00    	jmpq   *0x20434a(%rip)        # 605070 <close@GLIBC_2.2.5>
  400d26:	68 0b 00 00 00       	pushq  $0xb
  400d2b:	e9 30 ff ff ff       	jmpq   400c60 <.plt>

0000000000400d30 <read@plt>:
  400d30:	ff 25 42 43 20 00    	jmpq   *0x204342(%rip)        # 605078 <read@GLIBC_2.2.5>
  400d36:	68 0c 00 00 00       	pushq  $0xc
  400d3b:	e9 20 ff ff ff       	jmpq   400c60 <.plt>

0000000000400d40 <signal@plt>:
  400d40:	ff 25 3a 43 20 00    	jmpq   *0x20433a(%rip)        # 605080 <signal@GLIBC_2.2.5>
  400d46:	68 0d 00 00 00       	pushq  $0xd
  400d4b:	e9 10 ff ff ff       	jmpq   400c60 <.plt>

0000000000400d50 <gethostbyname@plt>:
  400d50:	ff 25 32 43 20 00    	jmpq   *0x204332(%rip)        # 605088 <gethostbyname@GLIBC_2.2.5>
  400d56:	68 0e 00 00 00       	pushq  $0xe
  400d5b:	e9 00 ff ff ff       	jmpq   400c60 <.plt>

0000000000400d60 <__memmove_chk@plt>:
  400d60:	ff 25 2a 43 20 00    	jmpq   *0x20432a(%rip)        # 605090 <__memmove_chk@GLIBC_2.3.4>
  400d66:	68 0f 00 00 00       	pushq  $0xf
  400d6b:	e9 f0 fe ff ff       	jmpq   400c60 <.plt>

0000000000400d70 <strtol@plt>:
  400d70:	ff 25 22 43 20 00    	jmpq   *0x204322(%rip)        # 605098 <strtol@GLIBC_2.2.5>
  400d76:	68 10 00 00 00       	pushq  $0x10
  400d7b:	e9 e0 fe ff ff       	jmpq   400c60 <.plt>

0000000000400d80 <memcpy@plt>:
  400d80:	ff 25 1a 43 20 00    	jmpq   *0x20431a(%rip)        # 6050a0 <memcpy@GLIBC_2.14>
  400d86:	68 11 00 00 00       	pushq  $0x11
  400d8b:	e9 d0 fe ff ff       	jmpq   400c60 <.plt>

0000000000400d90 <time@plt>:
  400d90:	ff 25 12 43 20 00    	jmpq   *0x204312(%rip)        # 6050a8 <time@GLIBC_2.2.5>
  400d96:	68 12 00 00 00       	pushq  $0x12
  400d9b:	e9 c0 fe ff ff       	jmpq   400c60 <.plt>

0000000000400da0 <random@plt>:
  400da0:	ff 25 0a 43 20 00    	jmpq   *0x20430a(%rip)        # 6050b0 <random@GLIBC_2.2.5>
  400da6:	68 13 00 00 00       	pushq  $0x13
  400dab:	e9 b0 fe ff ff       	jmpq   400c60 <.plt>

0000000000400db0 <_IO_getc@plt>:
  400db0:	ff 25 02 43 20 00    	jmpq   *0x204302(%rip)        # 6050b8 <_IO_getc@GLIBC_2.2.5>
  400db6:	68 14 00 00 00       	pushq  $0x14
  400dbb:	e9 a0 fe ff ff       	jmpq   400c60 <.plt>

0000000000400dc0 <__isoc99_sscanf@plt>:
  400dc0:	ff 25 fa 42 20 00    	jmpq   *0x2042fa(%rip)        # 6050c0 <__isoc99_sscanf@GLIBC_2.7>
  400dc6:	68 15 00 00 00       	pushq  $0x15
  400dcb:	e9 90 fe ff ff       	jmpq   400c60 <.plt>

0000000000400dd0 <munmap@plt>:
  400dd0:	ff 25 f2 42 20 00    	jmpq   *0x2042f2(%rip)        # 6050c8 <munmap@GLIBC_2.2.5>
  400dd6:	68 16 00 00 00       	pushq  $0x16
  400ddb:	e9 80 fe ff ff       	jmpq   400c60 <.plt>

0000000000400de0 <__printf_chk@plt>:
  400de0:	ff 25 ea 42 20 00    	jmpq   *0x2042ea(%rip)        # 6050d0 <__printf_chk@GLIBC_2.3.4>
  400de6:	68 17 00 00 00       	pushq  $0x17
  400deb:	e9 70 fe ff ff       	jmpq   400c60 <.plt>

0000000000400df0 <fopen@plt>:
  400df0:	ff 25 e2 42 20 00    	jmpq   *0x2042e2(%rip)        # 6050d8 <fopen@GLIBC_2.2.5>
  400df6:	68 18 00 00 00       	pushq  $0x18
  400dfb:	e9 60 fe ff ff       	jmpq   400c60 <.plt>

0000000000400e00 <getopt@plt>:
  400e00:	ff 25 da 42 20 00    	jmpq   *0x2042da(%rip)        # 6050e0 <getopt@GLIBC_2.2.5>
  400e06:	68 19 00 00 00       	pushq  $0x19
  400e0b:	e9 50 fe ff ff       	jmpq   400c60 <.plt>

0000000000400e10 <strtoul@plt>:
  400e10:	ff 25 d2 42 20 00    	jmpq   *0x2042d2(%rip)        # 6050e8 <strtoul@GLIBC_2.2.5>
  400e16:	68 1a 00 00 00       	pushq  $0x1a
  400e1b:	e9 40 fe ff ff       	jmpq   400c60 <.plt>

0000000000400e20 <gethostname@plt>:
  400e20:	ff 25 ca 42 20 00    	jmpq   *0x2042ca(%rip)        # 6050f0 <gethostname@GLIBC_2.2.5>
  400e26:	68 1b 00 00 00       	pushq  $0x1b
  400e2b:	e9 30 fe ff ff       	jmpq   400c60 <.plt>

0000000000400e30 <exit@plt>:
  400e30:	ff 25 c2 42 20 00    	jmpq   *0x2042c2(%rip)        # 6050f8 <exit@GLIBC_2.2.5>
  400e36:	68 1c 00 00 00       	pushq  $0x1c
  400e3b:	e9 20 fe ff ff       	jmpq   400c60 <.plt>

0000000000400e40 <connect@plt>:
  400e40:	ff 25 ba 42 20 00    	jmpq   *0x2042ba(%rip)        # 605100 <connect@GLIBC_2.2.5>
  400e46:	68 1d 00 00 00       	pushq  $0x1d
  400e4b:	e9 10 fe ff ff       	jmpq   400c60 <.plt>

0000000000400e50 <__fprintf_chk@plt>:
  400e50:	ff 25 b2 42 20 00    	jmpq   *0x2042b2(%rip)        # 605108 <__fprintf_chk@GLIBC_2.3.4>
  400e56:	68 1e 00 00 00       	pushq  $0x1e
  400e5b:	e9 00 fe ff ff       	jmpq   400c60 <.plt>

0000000000400e60 <__sprintf_chk@plt>:
  400e60:	ff 25 aa 42 20 00    	jmpq   *0x2042aa(%rip)        # 605110 <__sprintf_chk@GLIBC_2.3.4>
  400e66:	68 1f 00 00 00       	pushq  $0x1f
  400e6b:	e9 f0 fd ff ff       	jmpq   400c60 <.plt>

0000000000400e70 <socket@plt>:
  400e70:	ff 25 a2 42 20 00    	jmpq   *0x2042a2(%rip)        # 605118 <socket@GLIBC_2.2.5>
  400e76:	68 20 00 00 00       	pushq  $0x20
  400e7b:	e9 e0 fd ff ff       	jmpq   400c60 <.plt>

Disassembly of section .text:

0000000000400e80 <_start>:
  400e80:	31 ed                	xor    %ebp,%ebp
  400e82:	49 89 d1             	mov    %rdx,%r9
  400e85:	5e                   	pop    %rsi
  400e86:	48 89 e2             	mov    %rsp,%rdx
  400e89:	48 83 e4 f0          	and    $0xfffffffffffffff0,%rsp
  400e8d:	50                   	push   %rax
  400e8e:	54                   	push   %rsp
  400e8f:	49 c7 c0 e0 2f 40 00 	mov    $0x402fe0,%r8
  400e96:	48 c7 c1 70 2f 40 00 	mov    $0x402f70,%rcx
  400e9d:	48 c7 c7 95 11 40 00 	mov    $0x401195,%rdi
  400ea4:	ff 15 46 41 20 00    	callq  *0x204146(%rip)        # 604ff0 <__libc_start_main@GLIBC_2.2.5>
  400eaa:	f4                   	hlt    
  400eab:	0f 1f 44 00 00       	nopl   0x0(%rax,%rax,1)

0000000000400eb0 <_dl_relocate_static_pie>:
  400eb0:	f3 c3                	repz retq 
  400eb2:	66 2e 0f 1f 84 00 00 	nopw   %cs:0x0(%rax,%rax,1)
  400eb9:	00 00 00 
  400ebc:	0f 1f 40 00          	nopl   0x0(%rax)

0000000000400ec0 <deregister_tm_clones>:
  400ec0:	b8 97 54 60 00       	mov    $0x605497,%eax
  400ec5:	55                   	push   %rbp
  400ec6:	48 2d 90 54 60 00    	sub    $0x605490,%rax
  400ecc:	48 83 f8 0e          	cmp    $0xe,%rax
  400ed0:	48 89 e5             	mov    %rsp,%rbp
  400ed3:	76 1b                	jbe    400ef0 <deregister_tm_clones+0x30>
  400ed5:	b8 00 00 00 00       	mov    $0x0,%eax
  400eda:	48 85 c0             	test   %rax,%rax
  400edd:	74 11                	je     400ef0 <deregister_tm_clones+0x30>
  400edf:	5d                   	pop    %rbp
  400ee0:	bf 90 54 60 00       	mov    $0x605490,%edi
  400ee5:	ff e0                	jmpq   *%rax
  400ee7:	66 0f 1f 84 00 00 00 	nopw   0x0(%rax,%rax,1)
  400eee:	00 00 
  400ef0:	5d                   	pop    %rbp
  400ef1:	c3                   	retq   
  400ef2:	0f 1f 40 00          	nopl   0x0(%rax)
  400ef6:	66 2e 0f 1f 84 00 00 	nopw   %cs:0x0(%rax,%rax,1)
  400efd:	00 00 00 

0000000000400f00 <register_tm_clones>:
  400f00:	be 90 54 60 00       	mov    $0x605490,%esi
  400f05:	55                   	push   %rbp
  400f06:	48 81 ee 90 54 60 00 	sub    $0x605490,%rsi
  400f0d:	48 c1 fe 03          	sar    $0x3,%rsi
  400f11:	48 89 e5             	mov    %rsp,%rbp
  400f14:	48 89 f0             	mov    %rsi,%rax
  400f17:	48 c1 e8 3f          	shr    $0x3f,%rax
  400f1b:	48 01 c6             	add    %rax,%rsi
  400f1e:	48 d1 fe             	sar    %rsi
  400f21:	74 15                	je     400f38 <register_tm_clones+0x38>
  400f23:	b8 00 00 00 00       	mov    $0x0,%eax
  400f28:	48 85 c0             	test   %rax,%rax
  400f2b:	74 0b                	je     400f38 <register_tm_clones+0x38>
  400f2d:	5d                   	pop    %rbp
  400f2e:	bf 90 54 60 00       	mov    $0x605490,%edi
  400f33:	ff e0                	jmpq   *%rax
  400f35:	0f 1f 00             	nopl   (%rax)
  400f38:	5d                   	pop    %rbp
  400f39:	c3                   	retq   
  400f3a:	66 0f 1f 44 00 00    	nopw   0x0(%rax,%rax,1)

0000000000400f40 <__do_global_dtors_aux>:
  400f40:	80 3d 81 45 20 00 00 	cmpb   $0x0,0x204581(%rip)        # 6054c8 <completed.7667>
  400f47:	75 11                	jne    400f5a <__do_global_dtors_aux+0x1a>
  400f49:	55                   	push   %rbp
  400f4a:	48 89 e5             	mov    %rsp,%rbp
  400f4d:	e8 6e ff ff ff       	callq  400ec0 <deregister_tm_clones>
  400f52:	5d                   	pop    %rbp
  400f53:	c6 05 6e 45 20 00 01 	movb   $0x1,0x20456e(%rip)        # 6054c8 <completed.7667>
  400f5a:	f3 c3                	repz retq 
  400f5c:	0f 1f 40 00          	nopl   0x0(%rax)

0000000000400f60 <frame_dummy>:
  400f60:	bf 18 4e 60 00       	mov    $0x604e18,%edi
  400f65:	48 83 3f 00          	cmpq   $0x0,(%rdi)
  400f69:	75 05                	jne    400f70 <frame_dummy+0x10>
  400f6b:	eb 93                	jmp    400f00 <register_tm_clones>
  400f6d:	0f 1f 00             	nopl   (%rax)
  400f70:	b8 00 00 00 00       	mov    $0x0,%eax
  400f75:	48 85 c0             	test   %rax,%rax
  400f78:	74 f1                	je     400f6b <frame_dummy+0xb>
  400f7a:	55                   	push   %rbp
  400f7b:	48 89 e5             	mov    %rsp,%rbp
  400f7e:	ff d0                	callq  *%rax
  400f80:	5d                   	pop    %rbp
  400f81:	e9 7a ff ff ff       	jmpq   400f00 <register_tm_clones>

0000000000400f86 <usage>:
  400f86:	48 83 ec 08          	sub    $0x8,%rsp
  400f8a:	48 89 fa             	mov    %rdi,%rdx
  400f8d:	83 3d 74 45 20 00 00 	cmpl   $0x0,0x204574(%rip)        # 605508 <is_checker>
  400f94:	74 3e                	je     400fd4 <usage+0x4e>
  400f96:	be f8 2f 40 00       	mov    $0x402ff8,%esi
  400f9b:	bf 01 00 00 00       	mov    $0x1,%edi
  400fa0:	b8 00 00 00 00       	mov    $0x0,%eax
  400fa5:	e8 36 fe ff ff       	callq  400de0 <__printf_chk@plt>
  400faa:	bf 30 30 40 00       	mov    $0x403030,%edi
  400faf:	e8 0c fd ff ff       	callq  400cc0 <puts@plt>
  400fb4:	bf a8 31 40 00       	mov    $0x4031a8,%edi
  400fb9:	e8 02 fd ff ff       	callq  400cc0 <puts@plt>
  400fbe:	bf 58 30 40 00       	mov    $0x403058,%edi
  400fc3:	e8 f8 fc ff ff       	callq  400cc0 <puts@plt>
  400fc8:	bf c2 31 40 00       	mov    $0x4031c2,%edi
  400fcd:	e8 ee fc ff ff       	callq  400cc0 <puts@plt>
  400fd2:	eb 32                	jmp    401006 <usage+0x80>
  400fd4:	be de 31 40 00       	mov    $0x4031de,%esi
  400fd9:	bf 01 00 00 00       	mov    $0x1,%edi
  400fde:	b8 00 00 00 00       	mov    $0x0,%eax
  400fe3:	e8 f8 fd ff ff       	callq  400de0 <__printf_chk@plt>
  400fe8:	bf 80 30 40 00       	mov    $0x403080,%edi
  400fed:	e8 ce fc ff ff       	callq  400cc0 <puts@plt>
  400ff2:	bf a8 30 40 00       	mov    $0x4030a8,%edi
  400ff7:	e8 c4 fc ff ff       	callq  400cc0 <puts@plt>
  400ffc:	bf fc 31 40 00       	mov    $0x4031fc,%edi
  401001:	e8 ba fc ff ff       	callq  400cc0 <puts@plt>
  401006:	bf 00 00 00 00       	mov    $0x0,%edi
  40100b:	e8 20 fe ff ff       	callq  400e30 <exit@plt>

0000000000401010 <initialize_target>:
  401010:	55                   	push   %rbp
  401011:	53                   	push   %rbx
  401012:	48 81 ec 18 21 00 00 	sub    $0x2118,%rsp
  401019:	89 f5                	mov    %esi,%ebp
  40101b:	64 48 8b 04 25 28 00 	mov    %fs:0x28,%rax
  401022:	00 00 
  401024:	48 89 84 24 08 21 00 	mov    %rax,0x2108(%rsp)
  40102b:	00 
  40102c:	31 c0                	xor    %eax,%eax
  40102e:	89 3d c4 44 20 00    	mov    %edi,0x2044c4(%rip)        # 6054f8 <check_level>
  401034:	8b 3d 0e 41 20 00    	mov    0x20410e(%rip),%edi        # 605148 <target_id>
  40103a:	e8 0e 1f 00 00       	callq  402f4d <gencookie>
  40103f:	89 05 bf 44 20 00    	mov    %eax,0x2044bf(%rip)        # 605504 <cookie>
  401045:	89 c7                	mov    %eax,%edi
  401047:	e8 01 1f 00 00       	callq  402f4d <gencookie>
  40104c:	89 05 ae 44 20 00    	mov    %eax,0x2044ae(%rip)        # 605500 <authkey>
  401052:	8b 05 f0 40 20 00    	mov    0x2040f0(%rip),%eax        # 605148 <target_id>
  401058:	8d 78 01             	lea    0x1(%rax),%edi
  40105b:	e8 30 fc ff ff       	callq  400c90 <srandom@plt>
  401060:	e8 3b fd ff ff       	callq  400da0 <random@plt>
  401065:	89 c7                	mov    %eax,%edi
  401067:	e8 03 03 00 00       	callq  40136f <scramble>
  40106c:	89 c3                	mov    %eax,%ebx
  40106e:	85 ed                	test   %ebp,%ebp
  401070:	74 18                	je     40108a <initialize_target+0x7a>
  401072:	bf 00 00 00 00       	mov    $0x0,%edi
  401077:	e8 14 fd ff ff       	callq  400d90 <time@plt>
  40107c:	89 c7                	mov    %eax,%edi
  40107e:	e8 0d fc ff ff       	callq  400c90 <srandom@plt>
  401083:	e8 18 fd ff ff       	callq  400da0 <random@plt>
  401088:	eb 05                	jmp    40108f <initialize_target+0x7f>
  40108a:	b8 00 00 00 00       	mov    $0x0,%eax
  40108f:	01 c3                	add    %eax,%ebx
  401091:	0f b7 db             	movzwl %bx,%ebx
  401094:	8d 04 dd 00 01 00 00 	lea    0x100(,%rbx,8),%eax
  40109b:	89 c0                	mov    %eax,%eax
  40109d:	48 89 05 dc 43 20 00 	mov    %rax,0x2043dc(%rip)        # 605480 <buf_offset>
  4010a4:	c6 05 7d 50 20 00 72 	movb   $0x72,0x20507d(%rip)        # 606128 <target_prefix>
  4010ab:	83 3d d6 43 20 00 00 	cmpl   $0x0,0x2043d6(%rip)        # 605488 <notify>
  4010b2:	0f 84 bb 00 00 00    	je     401173 <initialize_target+0x163>
  4010b8:	83 3d 49 44 20 00 00 	cmpl   $0x0,0x204449(%rip)        # 605508 <is_checker>
  4010bf:	0f 85 ae 00 00 00    	jne    401173 <initialize_target+0x163>
  4010c5:	be 00 01 00 00       	mov    $0x100,%esi
  4010ca:	48 89 e7             	mov    %rsp,%rdi
  4010cd:	e8 4e fd ff ff       	callq  400e20 <gethostname@plt>
  4010d2:	85 c0                	test   %eax,%eax
  4010d4:	74 25                	je     4010fb <initialize_target+0xeb>
  4010d6:	bf d8 30 40 00       	mov    $0x4030d8,%edi
  4010db:	e8 e0 fb ff ff       	callq  400cc0 <puts@plt>
  4010e0:	bf 08 00 00 00       	mov    $0x8,%edi
  4010e5:	e8 46 fd ff ff       	callq  400e30 <exit@plt>
  4010ea:	48 89 e6             	mov    %rsp,%rsi
  4010ed:	e8 7e fb ff ff       	callq  400c70 <strcasecmp@plt>
  4010f2:	85 c0                	test   %eax,%eax
  4010f4:	74 21                	je     401117 <initialize_target+0x107>
  4010f6:	83 c3 01             	add    $0x1,%ebx
  4010f9:	eb 05                	jmp    401100 <initialize_target+0xf0>
  4010fb:	bb 00 00 00 00       	mov    $0x0,%ebx
  401100:	48 63 c3             	movslq %ebx,%rax
  401103:	48 8b 3c c5 60 51 60 	mov    0x605160(,%rax,8),%rdi
  40110a:	00 
  40110b:	48 85 ff             	test   %rdi,%rdi
  40110e:	75 da                	jne    4010ea <initialize_target+0xda>
  401110:	b8 00 00 00 00       	mov    $0x0,%eax
  401115:	eb 05                	jmp    40111c <initialize_target+0x10c>
  401117:	b8 01 00 00 00       	mov    $0x1,%eax
  40111c:	85 c0                	test   %eax,%eax
  40111e:	75 1c                	jne    40113c <initialize_target+0x12c>
  401120:	48 89 e2             	mov    %rsp,%rdx
  401123:	be 10 31 40 00       	mov    $0x403110,%esi
  401128:	bf 01 00 00 00       	mov    $0x1,%edi
  40112d:	e8 ae fc ff ff       	callq  400de0 <__printf_chk@plt>
  401132:	bf 08 00 00 00       	mov    $0x8,%edi
  401137:	e8 f4 fc ff ff       	callq  400e30 <exit@plt>
  40113c:	48 8d bc 24 00 01 00 	lea    0x100(%rsp),%rdi
  401143:	00 
  401144:	e8 6e 1b 00 00       	callq  402cb7 <init_driver>
  401149:	85 c0                	test   %eax,%eax
  40114b:	79 26                	jns    401173 <initialize_target+0x163>
  40114d:	48 8d 94 24 00 01 00 	lea    0x100(%rsp),%rdx
  401154:	00 
  401155:	be 50 31 40 00       	mov    $0x403150,%esi
  40115a:	bf 01 00 00 00       	mov    $0x1,%edi
  40115f:	b8 00 00 00 00       	mov    $0x0,%eax
  401164:	e8 77 fc ff ff       	callq  400de0 <__printf_chk@plt>
  401169:	bf 08 00 00 00       	mov    $0x8,%edi
  40116e:	e8 bd fc ff ff       	callq  400e30 <exit@plt>
  401173:	48 8b 84 24 08 21 00 	mov    0x2108(%rsp),%rax
  40117a:	00 
  40117b:	64 48 33 04 25 28 00 	xor    %fs:0x28,%rax
  401182:	00 00 
  401184:	74 05                	je     40118b <initialize_target+0x17b>
  401186:	e8 55 fb ff ff       	callq  400ce0 <__stack_chk_fail@plt>
  40118b:	48 81 c4 18 21 00 00 	add    $0x2118,%rsp
  401192:	5b                   	pop    %rbx
  401193:	5d                   	pop    %rbp
  401194:	c3                   	retq   

0000000000401195 <main>:
  401195:	41 56                	push   %r14
  401197:	41 55                	push   %r13
  401199:	41 54                	push   %r12
  40119b:	55                   	push   %rbp
  40119c:	53                   	push   %rbx
  40119d:	41 89 fc             	mov    %edi,%r12d
  4011a0:	48 89 f3             	mov    %rsi,%rbx
  4011a3:	be 28 20 40 00       	mov    $0x402028,%esi
  4011a8:	bf 0b 00 00 00       	mov    $0xb,%edi
  4011ad:	e8 8e fb ff ff       	callq  400d40 <signal@plt>
  4011b2:	be da 1f 40 00       	mov    $0x401fda,%esi
  4011b7:	bf 07 00 00 00       	mov    $0x7,%edi
  4011bc:	e8 7f fb ff ff       	callq  400d40 <signal@plt>
  4011c1:	be 76 20 40 00       	mov    $0x402076,%esi
  4011c6:	bf 04 00 00 00       	mov    $0x4,%edi
  4011cb:	e8 70 fb ff ff       	callq  400d40 <signal@plt>
  4011d0:	83 3d 31 43 20 00 00 	cmpl   $0x0,0x204331(%rip)        # 605508 <is_checker>
  4011d7:	74 20                	je     4011f9 <main+0x64>
  4011d9:	be c4 20 40 00       	mov    $0x4020c4,%esi
  4011de:	bf 0e 00 00 00       	mov    $0xe,%edi
  4011e3:	e8 58 fb ff ff       	callq  400d40 <signal@plt>
  4011e8:	bf 05 00 00 00       	mov    $0x5,%edi
  4011ed:	e8 1e fb ff ff       	callq  400d10 <alarm@plt>
  4011f2:	bd 1a 32 40 00       	mov    $0x40321a,%ebp
  4011f7:	eb 05                	jmp    4011fe <main+0x69>
  4011f9:	bd 15 32 40 00       	mov    $0x403215,%ebp
  4011fe:	48 8b 05 9b 42 20 00 	mov    0x20429b(%rip),%rax        # 6054a0 <stdin@@GLIBC_2.2.5>
  401205:	48 89 05 e4 42 20 00 	mov    %rax,0x2042e4(%rip)        # 6054f0 <infile>
  40120c:	41 bd 00 00 00 00    	mov    $0x0,%r13d
  401212:	41 be 00 00 00 00    	mov    $0x0,%r14d
  401218:	e9 c6 00 00 00       	jmpq   4012e3 <main+0x14e>
  40121d:	83 e8 61             	sub    $0x61,%eax
  401220:	3c 10                	cmp    $0x10,%al
  401222:	0f 87 9c 00 00 00    	ja     4012c4 <main+0x12f>
  401228:	0f b6 c0             	movzbl %al,%eax
  40122b:	ff 24 c5 60 32 40 00 	jmpq   *0x403260(,%rax,8)
  401232:	48 8b 3b             	mov    (%rbx),%rdi
  401235:	e8 4c fd ff ff       	callq  400f86 <usage>
  40123a:	be f5 34 40 00       	mov    $0x4034f5,%esi
  40123f:	48 8b 3d 62 42 20 00 	mov    0x204262(%rip),%rdi        # 6054a8 <optarg@@GLIBC_2.2.5>
  401246:	e8 a5 fb ff ff       	callq  400df0 <fopen@plt>
  40124b:	48 89 05 9e 42 20 00 	mov    %rax,0x20429e(%rip)        # 6054f0 <infile>
  401252:	48 85 c0             	test   %rax,%rax
  401255:	0f 85 88 00 00 00    	jne    4012e3 <main+0x14e>
  40125b:	48 8b 0d 46 42 20 00 	mov    0x204246(%rip),%rcx        # 6054a8 <optarg@@GLIBC_2.2.5>
  401262:	ba 22 32 40 00       	mov    $0x403222,%edx
  401267:	be 01 00 00 00       	mov    $0x1,%esi
  40126c:	48 8b 3d 4d 42 20 00 	mov    0x20424d(%rip),%rdi        # 6054c0 <stderr@@GLIBC_2.2.5>
  401273:	e8 d8 fb ff ff       	callq  400e50 <__fprintf_chk@plt>
  401278:	b8 01 00 00 00       	mov    $0x1,%eax
  40127d:	e9 e4 00 00 00       	jmpq   401366 <main+0x1d1>
  401282:	ba 10 00 00 00       	mov    $0x10,%edx
  401287:	be 00 00 00 00       	mov    $0x0,%esi
  40128c:	48 8b 3d 15 42 20 00 	mov    0x204215(%rip),%rdi        # 6054a8 <optarg@@GLIBC_2.2.5>
  401293:	e8 78 fb ff ff       	callq  400e10 <strtoul@plt>
  401298:	41 89 c6             	mov    %eax,%r14d
  40129b:	eb 46                	jmp    4012e3 <main+0x14e>
  40129d:	ba 0a 00 00 00       	mov    $0xa,%edx
  4012a2:	be 00 00 00 00       	mov    $0x0,%esi
  4012a7:	48 8b 3d fa 41 20 00 	mov    0x2041fa(%rip),%rdi        # 6054a8 <optarg@@GLIBC_2.2.5>
  4012ae:	e8 bd fa ff ff       	callq  400d70 <strtol@plt>
  4012b3:	41 89 c5             	mov    %eax,%r13d
  4012b6:	eb 2b                	jmp    4012e3 <main+0x14e>
  4012b8:	c7 05 c6 41 20 00 00 	movl   $0x0,0x2041c6(%rip)        # 605488 <notify>
  4012bf:	00 00 00 
  4012c2:	eb 1f                	jmp    4012e3 <main+0x14e>
  4012c4:	0f be d2             	movsbl %dl,%edx
  4012c7:	be 3f 32 40 00       	mov    $0x40323f,%esi
  4012cc:	bf 01 00 00 00       	mov    $0x1,%edi
  4012d1:	b8 00 00 00 00       	mov    $0x0,%eax
  4012d6:	e8 05 fb ff ff       	callq  400de0 <__printf_chk@plt>
  4012db:	48 8b 3b             	mov    (%rbx),%rdi
  4012de:	e8 a3 fc ff ff       	callq  400f86 <usage>
  4012e3:	48 89 ea             	mov    %rbp,%rdx
  4012e6:	48 89 de             	mov    %rbx,%rsi
  4012e9:	44 89 e7             	mov    %r12d,%edi
  4012ec:	e8 0f fb ff ff       	callq  400e00 <getopt@plt>
  4012f1:	89 c2                	mov    %eax,%edx
  4012f3:	3c ff                	cmp    $0xff,%al
  4012f5:	0f 85 22 ff ff ff    	jne    40121d <main+0x88>
  4012fb:	be 01 00 00 00       	mov    $0x1,%esi
  401300:	44 89 ef             	mov    %r13d,%edi
  401303:	e8 08 fd ff ff       	callq  401010 <initialize_target>
  401308:	83 3d f9 41 20 00 00 	cmpl   $0x0,0x2041f9(%rip)        # 605508 <is_checker>
  40130f:	74 2a                	je     40133b <main+0x1a6>
  401311:	44 3b 35 e8 41 20 00 	cmp    0x2041e8(%rip),%r14d        # 605500 <authkey>
  401318:	74 21                	je     40133b <main+0x1a6>
  40131a:	44 89 f2             	mov    %r14d,%edx
  40131d:	be 78 31 40 00       	mov    $0x403178,%esi
  401322:	bf 01 00 00 00       	mov    $0x1,%edi
  401327:	b8 00 00 00 00       	mov    $0x0,%eax
  40132c:	e8 af fa ff ff       	callq  400de0 <__printf_chk@plt>
  401331:	b8 00 00 00 00       	mov    $0x0,%eax
  401336:	e8 3b 09 00 00       	callq  401c76 <check_fail>
  40133b:	8b 15 c3 41 20 00    	mov    0x2041c3(%rip),%edx        # 605504 <cookie>
  401341:	be 52 32 40 00       	mov    $0x403252,%esi
  401346:	bf 01 00 00 00       	mov    $0x1,%edi
  40134b:	b8 00 00 00 00       	mov    $0x0,%eax
  401350:	e8 8b fa ff ff       	callq  400de0 <__printf_chk@plt>
  401355:	48 8b 3d 24 41 20 00 	mov    0x204124(%rip),%rdi        # 605480 <buf_offset>
  40135c:	e8 b6 0d 00 00       	callq  402117 <launch>
  401361:	b8 00 00 00 00       	mov    $0x0,%eax
  401366:	5b                   	pop    %rbx
  401367:	5d                   	pop    %rbp
  401368:	41 5c                	pop    %r12
  40136a:	41 5d                	pop    %r13
  40136c:	41 5e                	pop    %r14
  40136e:	c3                   	retq   

000000000040136f <scramble>:
  40136f:	48 83 ec 38          	sub    $0x38,%rsp
  401373:	64 48 8b 04 25 28 00 	mov    %fs:0x28,%rax
  40137a:	00 00 
  40137c:	48 89 44 24 28       	mov    %rax,0x28(%rsp)
  401381:	31 c0                	xor    %eax,%eax
  401383:	eb 10                	jmp    401395 <scramble+0x26>
  401385:	69 d0 fd ed 00 00    	imul   $0xedfd,%eax,%edx
  40138b:	01 fa                	add    %edi,%edx
  40138d:	89 c1                	mov    %eax,%ecx
  40138f:	89 14 8c             	mov    %edx,(%rsp,%rcx,4)
  401392:	83 c0 01             	add    $0x1,%eax
  401395:	83 f8 09             	cmp    $0x9,%eax
  401398:	76 eb                	jbe    401385 <scramble+0x16>
  40139a:	8b 44 24 08          	mov    0x8(%rsp),%eax
  40139e:	69 c0 89 aa 00 00    	imul   $0xaa89,%eax,%eax
  4013a4:	89 44 24 08          	mov    %eax,0x8(%rsp)
  4013a8:	8b 44 24 0c          	mov    0xc(%rsp),%eax
  4013ac:	69 c0 c3 bf 00 00    	imul   $0xbfc3,%eax,%eax
  4013b2:	89 44 24 0c          	mov    %eax,0xc(%rsp)
  4013b6:	8b 44 24 0c          	mov    0xc(%rsp),%eax
  4013ba:	69 c0 77 1b 00 00    	imul   $0x1b77,%eax,%eax
  4013c0:	89 44 24 0c          	mov    %eax,0xc(%rsp)
  4013c4:	8b 44 24 20          	mov    0x20(%rsp),%eax
  4013c8:	69 c0 af b2 00 00    	imul   $0xb2af,%eax,%eax
  4013ce:	89 44 24 20          	mov    %eax,0x20(%rsp)
  4013d2:	8b 44 24 14          	mov    0x14(%rsp),%eax
  4013d6:	69 c0 8d 31 00 00    	imul   $0x318d,%eax,%eax
  4013dc:	89 44 24 14          	mov    %eax,0x14(%rsp)
  4013e0:	8b 44 24 04          	mov    0x4(%rsp),%eax
  4013e4:	69 c0 4f 12 00 00    	imul   $0x124f,%eax,%eax
  4013ea:	89 44 24 04          	mov    %eax,0x4(%rsp)
  4013ee:	8b 44 24 08          	mov    0x8(%rsp),%eax
  4013f2:	69 c0 24 4e 00 00    	imul   $0x4e24,%eax,%eax
  4013f8:	89 44 24 08          	mov    %eax,0x8(%rsp)
  4013fc:	8b 44 24 10          	mov    0x10(%rsp),%eax
  401400:	69 c0 8d 3b 00 00    	imul   $0x3b8d,%eax,%eax
  401406:	89 44 24 10          	mov    %eax,0x10(%rsp)
  40140a:	8b 44 24 0c          	mov    0xc(%rsp),%eax
  40140e:	69 c0 fd 53 00 00    	imul   $0x53fd,%eax,%eax
  401414:	89 44 24 0c          	mov    %eax,0xc(%rsp)
  401418:	8b 44 24 10          	mov    0x10(%rsp),%eax
  40141c:	69 c0 2f a9 00 00    	imul   $0xa92f,%eax,%eax
  401422:	89 44 24 10          	mov    %eax,0x10(%rsp)
  401426:	8b 44 24 10          	mov    0x10(%rsp),%eax
  40142a:	69 c0 a5 1c 00 00    	imul   $0x1ca5,%eax,%eax
  401430:	89 44 24 10          	mov    %eax,0x10(%rsp)
  401434:	8b 44 24 14          	mov    0x14(%rsp),%eax
  401438:	69 c0 7e 8a 00 00    	imul   $0x8a7e,%eax,%eax
  40143e:	89 44 24 14          	mov    %eax,0x14(%rsp)
  401442:	8b 44 24 08          	mov    0x8(%rsp),%eax
  401446:	69 c0 1c 46 00 00    	imul   $0x461c,%eax,%eax
  40144c:	89 44 24 08          	mov    %eax,0x8(%rsp)
  401450:	8b 04 24             	mov    (%rsp),%eax
  401453:	69 c0 93 93 00 00    	imul   $0x9393,%eax,%eax
  401459:	89 04 24             	mov    %eax,(%rsp)
  40145c:	8b 44 24 20          	mov    0x20(%rsp),%eax
  401460:	69 c0 64 16 00 00    	imul   $0x1664,%eax,%eax
  401466:	89 44 24 20          	mov    %eax,0x20(%rsp)
  40146a:	8b 44 24 1c          	mov    0x1c(%rsp),%eax
  40146e:	69 c0 01 a5 00 00    	imul   $0xa501,%eax,%eax
  401474:	89 44 24 1c          	mov    %eax,0x1c(%rsp)
  401478:	8b 44 24 10          	mov    0x10(%rsp),%eax
  40147c:	69 c0 5c 6e 00 00    	imul   $0x6e5c,%eax,%eax
  401482:	89 44 24 10          	mov    %eax,0x10(%rsp)
  401486:	8b 44 24 20          	mov    0x20(%rsp),%eax
  40148a:	69 c0 8d f9 00 00    	imul   $0xf98d,%eax,%eax
  401490:	89 44 24 20          	mov    %eax,0x20(%rsp)
  401494:	8b 44 24 10          	mov    0x10(%rsp),%eax
  401498:	69 c0 a3 0d 00 00    	imul   $0xda3,%eax,%eax
  40149e:	89 44 24 10          	mov    %eax,0x10(%rsp)
  4014a2:	8b 44 24 20          	mov    0x20(%rsp),%eax
  4014a6:	69 c0 44 28 00 00    	imul   $0x2844,%eax,%eax
  4014ac:	89 44 24 20          	mov    %eax,0x20(%rsp)
  4014b0:	8b 44 24 24          	mov    0x24(%rsp),%eax
  4014b4:	69 c0 25 cb 00 00    	imul   $0xcb25,%eax,%eax
  4014ba:	89 44 24 24          	mov    %eax,0x24(%rsp)
  4014be:	8b 44 24 24          	mov    0x24(%rsp),%eax
  4014c2:	69 c0 a0 47 00 00    	imul   $0x47a0,%eax,%eax
  4014c8:	89 44 24 24          	mov    %eax,0x24(%rsp)
  4014cc:	8b 44 24 04          	mov    0x4(%rsp),%eax
  4014d0:	69 c0 15 42 00 00    	imul   $0x4215,%eax,%eax
  4014d6:	89 44 24 04          	mov    %eax,0x4(%rsp)
  4014da:	8b 44 24 08          	mov    0x8(%rsp),%eax
  4014de:	69 c0 72 aa 00 00    	imul   $0xaa72,%eax,%eax
  4014e4:	89 44 24 08          	mov    %eax,0x8(%rsp)
  4014e8:	8b 44 24 0c          	mov    0xc(%rsp),%eax
  4014ec:	69 c0 6a d4 00 00    	imul   $0xd46a,%eax,%eax
  4014f2:	89 44 24 0c          	mov    %eax,0xc(%rsp)
  4014f6:	8b 44 24 1c          	mov    0x1c(%rsp),%eax
  4014fa:	69 c0 55 3d 00 00    	imul   $0x3d55,%eax,%eax
  401500:	89 44 24 1c          	mov    %eax,0x1c(%rsp)
  401504:	8b 44 24 14          	mov    0x14(%rsp),%eax
  401508:	69 c0 87 43 00 00    	imul   $0x4387,%eax,%eax
  40150e:	89 44 24 14          	mov    %eax,0x14(%rsp)
  401512:	8b 44 24 1c          	mov    0x1c(%rsp),%eax
  401516:	69 c0 0c 74 00 00    	imul   $0x740c,%eax,%eax
  40151c:	89 44 24 1c          	mov    %eax,0x1c(%rsp)
  401520:	8b 44 24 18          	mov    0x18(%rsp),%eax
  401524:	69 c0 9b 73 00 00    	imul   $0x739b,%eax,%eax
  40152a:	89 44 24 18          	mov    %eax,0x18(%rsp)
  40152e:	8b 44 24 1c          	mov    0x1c(%rsp),%eax
  401532:	69 c0 a7 40 00 00    	imul   $0x40a7,%eax,%eax
  401538:	89 44 24 1c          	mov    %eax,0x1c(%rsp)
  40153c:	8b 44 24 14          	mov    0x14(%rsp),%eax
  401540:	69 c0 b0 0f 00 00    	imul   $0xfb0,%eax,%eax
  401546:	89 44 24 14          	mov    %eax,0x14(%rsp)
  40154a:	8b 44 24 18          	mov    0x18(%rsp),%eax
  40154e:	69 c0 ed 4a 00 00    	imul   $0x4aed,%eax,%eax
  401554:	89 44 24 18          	mov    %eax,0x18(%rsp)
  401558:	8b 44 24 18          	mov    0x18(%rsp),%eax
  40155c:	69 c0 6d 4a 00 00    	imul   $0x4a6d,%eax,%eax
  401562:	89 44 24 18          	mov    %eax,0x18(%rsp)
  401566:	8b 44 24 04          	mov    0x4(%rsp),%eax
  40156a:	89 c2                	mov    %eax,%edx
  40156c:	c1 e2 05             	shl    $0x5,%edx
  40156f:	c1 e0 0b             	shl    $0xb,%eax
  401572:	29 d0                	sub    %edx,%eax
  401574:	89 44 24 04          	mov    %eax,0x4(%rsp)
  401578:	8b 44 24 1c          	mov    0x1c(%rsp),%eax
  40157c:	69 c0 b6 f0 00 00    	imul   $0xf0b6,%eax,%eax
  401582:	89 44 24 1c          	mov    %eax,0x1c(%rsp)
  401586:	8b 44 24 10          	mov    0x10(%rsp),%eax
  40158a:	69 c0 41 97 00 00    	imul   $0x9741,%eax,%eax
  401590:	89 44 24 10          	mov    %eax,0x10(%rsp)
  401594:	8b 44 24 0c          	mov    0xc(%rsp),%eax
  401598:	69 c0 b8 6a 00 00    	imul   $0x6ab8,%eax,%eax
  40159e:	89 44 24 0c          	mov    %eax,0xc(%rsp)
  4015a2:	8b 44 24 20          	mov    0x20(%rsp),%eax
  4015a6:	69 c0 25 d5 00 00    	imul   $0xd525,%eax,%eax
  4015ac:	89 44 24 20          	mov    %eax,0x20(%rsp)
  4015b0:	8b 44 24 04          	mov    0x4(%rsp),%eax
  4015b4:	69 c0 0e 62 00 00    	imul   $0x620e,%eax,%eax
  4015ba:	89 44 24 04          	mov    %eax,0x4(%rsp)
  4015be:	8b 44 24 0c          	mov    0xc(%rsp),%eax
  4015c2:	69 c0 e0 42 00 00    	imul   $0x42e0,%eax,%eax
  4015c8:	89 44 24 0c          	mov    %eax,0xc(%rsp)
  4015cc:	8b 44 24 04          	mov    0x4(%rsp),%eax
  4015d0:	69 c0 38 d3 00 00    	imul   $0xd338,%eax,%eax
  4015d6:	89 44 24 04          	mov    %eax,0x4(%rsp)
  4015da:	8b 44 24 18          	mov    0x18(%rsp),%eax
  4015de:	69 c0 88 27 00 00    	imul   $0x2788,%eax,%eax
  4015e4:	89 44 24 18          	mov    %eax,0x18(%rsp)
  4015e8:	8b 44 24 14          	mov    0x14(%rsp),%eax
  4015ec:	69 c0 09 48 00 00    	imul   $0x4809,%eax,%eax
  4015f2:	89 44 24 14          	mov    %eax,0x14(%rsp)
  4015f6:	8b 44 24 18          	mov    0x18(%rsp),%eax
  4015fa:	69 c0 63 a0 00 00    	imul   $0xa063,%eax,%eax
  401600:	89 44 24 18          	mov    %eax,0x18(%rsp)
  401604:	8b 44 24 0c          	mov    0xc(%rsp),%eax
  401608:	69 c0 35 a3 00 00    	imul   $0xa335,%eax,%eax
  40160e:	89 44 24 0c          	mov    %eax,0xc(%rsp)
  401612:	8b 44 24 1c          	mov    0x1c(%rsp),%eax
  401616:	69 c0 a4 45 00 00    	imul   $0x45a4,%eax,%eax
  40161c:	89 44 24 1c          	mov    %eax,0x1c(%rsp)
  401620:	8b 44 24 0c          	mov    0xc(%rsp),%eax
  401624:	69 c0 b4 c6 00 00    	imul   $0xc6b4,%eax,%eax
  40162a:	89 44 24 0c          	mov    %eax,0xc(%rsp)
  40162e:	8b 44 24 24          	mov    0x24(%rsp),%eax
  401632:	69 c0 f1 30 00 00    	imul   $0x30f1,%eax,%eax
  401638:	89 44 24 24          	mov    %eax,0x24(%rsp)
  40163c:	8b 44 24 08          	mov    0x8(%rsp),%eax
  401640:	69 c0 0b d5 00 00    	imul   $0xd50b,%eax,%eax
  401646:	89 44 24 08          	mov    %eax,0x8(%rsp)
  40164a:	8b 44 24 0c          	mov    0xc(%rsp),%eax
  40164e:	69 c0 32 69 00 00    	imul   $0x6932,%eax,%eax
  401654:	89 44 24 0c          	mov    %eax,0xc(%rsp)
  401658:	8b 44 24 10          	mov    0x10(%rsp),%eax
  40165c:	69 c0 f7 68 00 00    	imul   $0x68f7,%eax,%eax
  401662:	89 44 24 10          	mov    %eax,0x10(%rsp)
  401666:	8b 44 24 14          	mov    0x14(%rsp),%eax
  40166a:	69 c0 9d 81 00 00    	imul   $0x819d,%eax,%eax
  401670:	89 44 24 14          	mov    %eax,0x14(%rsp)
  401674:	8b 44 24 0c          	mov    0xc(%rsp),%eax
  401678:	69 c0 55 df 00 00    	imul   $0xdf55,%eax,%eax
  40167e:	89 44 24 0c          	mov    %eax,0xc(%rsp)
  401682:	8b 44 24 18          	mov    0x18(%rsp),%eax
  401686:	69 c0 7d 80 00 00    	imul   $0x807d,%eax,%eax
  40168c:	89 44 24 18          	mov    %eax,0x18(%rsp)
  401690:	8b 44 24 20          	mov    0x20(%rsp),%eax
  401694:	69 c0 5a d6 00 00    	imul   $0xd65a,%eax,%eax
  40169a:	89 44 24 20          	mov    %eax,0x20(%rsp)
  40169e:	8b 44 24 0c          	mov    0xc(%rsp),%eax
  4016a2:	69 c0 dd 77 00 00    	imul   $0x77dd,%eax,%eax
  4016a8:	89 44 24 0c          	mov    %eax,0xc(%rsp)
  4016ac:	8b 44 24 04          	mov    0x4(%rsp),%eax
  4016b0:	69 c0 93 43 00 00    	imul   $0x4393,%eax,%eax
  4016b6:	89 44 24 04          	mov    %eax,0x4(%rsp)
  4016ba:	8b 44 24 20          	mov    0x20(%rsp),%eax
  4016be:	69 c0 53 c0 00 00    	imul   $0xc053,%eax,%eax
  4016c4:	89 44 24 20          	mov    %eax,0x20(%rsp)
  4016c8:	8b 44 24 10          	mov    0x10(%rsp),%eax
  4016cc:	69 c0 fa 3a 00 00    	imul   $0x3afa,%eax,%eax
  4016d2:	89 44 24 10          	mov    %eax,0x10(%rsp)
  4016d6:	8b 44 24 24          	mov    0x24(%rsp),%eax
  4016da:	69 c0 41 47 00 00    	imul   $0x4741,%eax,%eax
  4016e0:	89 44 24 24          	mov    %eax,0x24(%rsp)
  4016e4:	8b 44 24 0c          	mov    0xc(%rsp),%eax
  4016e8:	69 c0 c1 41 00 00    	imul   $0x41c1,%eax,%eax
  4016ee:	89 44 24 0c          	mov    %eax,0xc(%rsp)
  4016f2:	8b 44 24 1c          	mov    0x1c(%rsp),%eax
  4016f6:	69 c0 14 91 00 00    	imul   $0x9114,%eax,%eax
  4016fc:	89 44 24 1c          	mov    %eax,0x1c(%rsp)
  401700:	8b 44 24 08          	mov    0x8(%rsp),%eax
  401704:	69 c0 76 1d 00 00    	imul   $0x1d76,%eax,%eax
  40170a:	89 44 24 08          	mov    %eax,0x8(%rsp)
  40170e:	8b 44 24 24          	mov    0x24(%rsp),%eax
  401712:	69 c0 97 19 00 00    	imul   $0x1997,%eax,%eax
  401718:	89 44 24 24          	mov    %eax,0x24(%rsp)
  40171c:	8b 44 24 04          	mov    0x4(%rsp),%eax
  401720:	69 c0 d8 fa 00 00    	imul   $0xfad8,%eax,%eax
  401726:	89 44 24 04          	mov    %eax,0x4(%rsp)
  40172a:	8b 44 24 0c          	mov    0xc(%rsp),%eax
  40172e:	69 c0 42 b8 00 00    	imul   $0xb842,%eax,%eax
  401734:	89 44 24 0c          	mov    %eax,0xc(%rsp)
  401738:	8b 44 24 08          	mov    0x8(%rsp),%eax
  40173c:	69 c0 3d 83 00 00    	imul   $0x833d,%eax,%eax
  401742:	89 44 24 08          	mov    %eax,0x8(%rsp)
  401746:	8b 44 24 24          	mov    0x24(%rsp),%eax
  40174a:	69 c0 7e 37 00 00    	imul   $0x377e,%eax,%eax
  401750:	89 44 24 24          	mov    %eax,0x24(%rsp)
  401754:	8b 44 24 18          	mov    0x18(%rsp),%eax
  401758:	69 c0 a3 90 00 00    	imul   $0x90a3,%eax,%eax
  40175e:	89 44 24 18          	mov    %eax,0x18(%rsp)
  401762:	8b 44 24 14          	mov    0x14(%rsp),%eax
  401766:	69 c0 f7 a3 00 00    	imul   $0xa3f7,%eax,%eax
  40176c:	89 44 24 14          	mov    %eax,0x14(%rsp)
  401770:	8b 44 24 20          	mov    0x20(%rsp),%eax
  401774:	69 c0 5a 7b 00 00    	imul   $0x7b5a,%eax,%eax
  40177a:	89 44 24 20          	mov    %eax,0x20(%rsp)
  40177e:	8b 44 24 0c          	mov    0xc(%rsp),%eax
  401782:	69 c0 90 10 00 00    	imul   $0x1090,%eax,%eax
  401788:	89 44 24 0c          	mov    %eax,0xc(%rsp)
  40178c:	8b 44 24 24          	mov    0x24(%rsp),%eax
  401790:	69 c0 39 bb 00 00    	imul   $0xbb39,%eax,%eax
  401796:	89 44 24 24          	mov    %eax,0x24(%rsp)
  40179a:	8b 44 24 20          	mov    0x20(%rsp),%eax
  40179e:	69 c0 8a 4a 00 00    	imul   $0x4a8a,%eax,%eax
  4017a4:	89 44 24 20          	mov    %eax,0x20(%rsp)
  4017a8:	8b 44 24 04          	mov    0x4(%rsp),%eax
  4017ac:	69 c0 9a 31 00 00    	imul   $0x319a,%eax,%eax
  4017b2:	89 44 24 04          	mov    %eax,0x4(%rsp)
  4017b6:	8b 44 24 14          	mov    0x14(%rsp),%eax
  4017ba:	69 c0 63 d4 00 00    	imul   $0xd463,%eax,%eax
  4017c0:	89 44 24 14          	mov    %eax,0x14(%rsp)
  4017c4:	8b 44 24 18          	mov    0x18(%rsp),%eax
  4017c8:	69 c0 b0 1e 00 00    	imul   $0x1eb0,%eax,%eax
  4017ce:	89 44 24 18          	mov    %eax,0x18(%rsp)
  4017d2:	8b 44 24 10          	mov    0x10(%rsp),%eax
  4017d6:	69 c0 d1 7b 00 00    	imul   $0x7bd1,%eax,%eax
  4017dc:	89 44 24 10          	mov    %eax,0x10(%rsp)
  4017e0:	8b 44 24 10          	mov    0x10(%rsp),%eax
  4017e4:	69 c0 7e 27 00 00    	imul   $0x277e,%eax,%eax
  4017ea:	89 44 24 10          	mov    %eax,0x10(%rsp)
  4017ee:	8b 44 24 10          	mov    0x10(%rsp),%eax
  4017f2:	69 c0 a7 2e 00 00    	imul   $0x2ea7,%eax,%eax
  4017f8:	89 44 24 10          	mov    %eax,0x10(%rsp)
  4017fc:	8b 44 24 24          	mov    0x24(%rsp),%eax
  401800:	69 c0 31 18 00 00    	imul   $0x1831,%eax,%eax
  401806:	89 44 24 24          	mov    %eax,0x24(%rsp)
  40180a:	8b 44 24 14          	mov    0x14(%rsp),%eax
  40180e:	69 c0 25 86 00 00    	imul   $0x8625,%eax,%eax
  401814:	89 44 24 14          	mov    %eax,0x14(%rsp)
  401818:	8b 44 24 1c          	mov    0x1c(%rsp),%eax
  40181c:	69 c0 c9 20 00 00    	imul   $0x20c9,%eax,%eax
  401822:	89 44 24 1c          	mov    %eax,0x1c(%rsp)
  401826:	8b 04 24             	mov    (%rsp),%eax
  401829:	69 c0 02 fe 00 00    	imul   $0xfe02,%eax,%eax
  40182f:	89 04 24             	mov    %eax,(%rsp)
  401832:	8b 44 24 0c          	mov    0xc(%rsp),%eax
  401836:	69 c0 9f 75 00 00    	imul   $0x759f,%eax,%eax
  40183c:	89 44 24 0c          	mov    %eax,0xc(%rsp)
  401840:	8b 44 24 24          	mov    0x24(%rsp),%eax
  401844:	69 c0 6a 18 00 00    	imul   $0x186a,%eax,%eax
  40184a:	89 44 24 24          	mov    %eax,0x24(%rsp)
  40184e:	8b 44 24 20          	mov    0x20(%rsp),%eax
  401852:	69 c0 cd bd 00 00    	imul   $0xbdcd,%eax,%eax
  401858:	89 44 24 20          	mov    %eax,0x20(%rsp)
  40185c:	8b 44 24 10          	mov    0x10(%rsp),%eax
  401860:	69 c0 e7 af 00 00    	imul   $0xafe7,%eax,%eax
  401866:	89 44 24 10          	mov    %eax,0x10(%rsp)
  40186a:	8b 44 24 24          	mov    0x24(%rsp),%eax
  40186e:	69 c0 de f9 00 00    	imul   $0xf9de,%eax,%eax
  401874:	89 44 24 24          	mov    %eax,0x24(%rsp)
  401878:	8b 44 24 18          	mov    0x18(%rsp),%eax
  40187c:	69 c0 3a 6f 00 00    	imul   $0x6f3a,%eax,%eax
  401882:	89 44 24 18          	mov    %eax,0x18(%rsp)
  401886:	8b 44 24 08          	mov    0x8(%rsp),%eax
  40188a:	69 c0 3c 8c 00 00    	imul   $0x8c3c,%eax,%eax
  401890:	89 44 24 08          	mov    %eax,0x8(%rsp)
  401894:	8b 44 24 20          	mov    0x20(%rsp),%eax
  401898:	69 c0 d3 9e 00 00    	imul   $0x9ed3,%eax,%eax
  40189e:	89 44 24 20          	mov    %eax,0x20(%rsp)
  4018a2:	8b 44 24 18          	mov    0x18(%rsp),%eax
  4018a6:	69 c0 16 a9 00 00    	imul   $0xa916,%eax,%eax
  4018ac:	89 44 24 18          	mov    %eax,0x18(%rsp)
  4018b0:	8b 04 24             	mov    (%rsp),%eax
  4018b3:	69 c0 12 e7 00 00    	imul   $0xe712,%eax,%eax
  4018b9:	89 04 24             	mov    %eax,(%rsp)
  4018bc:	8b 44 24 24          	mov    0x24(%rsp),%eax
  4018c0:	69 c0 0c b0 00 00    	imul   $0xb00c,%eax,%eax
  4018c6:	89 44 24 24          	mov    %eax,0x24(%rsp)
  4018ca:	ba 00 00 00 00       	mov    $0x0,%edx
  4018cf:	b8 00 00 00 00       	mov    $0x0,%eax
  4018d4:	eb 0a                	jmp    4018e0 <scramble+0x571>
  4018d6:	89 d1                	mov    %edx,%ecx
  4018d8:	8b 0c 8c             	mov    (%rsp,%rcx,4),%ecx
  4018db:	01 c8                	add    %ecx,%eax
  4018dd:	83 c2 01             	add    $0x1,%edx
  4018e0:	83 fa 09             	cmp    $0x9,%edx
  4018e3:	76 f1                	jbe    4018d6 <scramble+0x567>
  4018e5:	48 8b 74 24 28       	mov    0x28(%rsp),%rsi
  4018ea:	64 48 33 34 25 28 00 	xor    %fs:0x28,%rsi
  4018f1:	00 00 
  4018f3:	74 05                	je     4018fa <scramble+0x58b>
  4018f5:	e8 e6 f3 ff ff       	callq  400ce0 <__stack_chk_fail@plt>
  4018fa:	48 83 c4 38          	add    $0x38,%rsp
  4018fe:	c3                   	retq   

00000000004018ff <getbuf>:
  4018ff:	48 83 ec 18          	sub    $0x18,%rsp
  401903:	48 89 e7             	mov    %rsp,%rdi
  401906:	e8 a0 03 00 00       	callq  401cab <Gets>
  40190b:	b8 01 00 00 00       	mov    $0x1,%eax
  401910:	48 83 c4 18          	add    $0x18,%rsp
  401914:	c3                   	retq   

0000000000401915 <touch1>:
  401915:	48 83 ec 08          	sub    $0x8,%rsp
  401919:	c7 05 d9 3b 20 00 01 	movl   $0x1,0x203bd9(%rip)        # 6054fc <vlevel>
  401920:	00 00 00 
  401923:	bf 4d 33 40 00       	mov    $0x40334d,%edi
  401928:	e8 93 f3 ff ff       	callq  400cc0 <puts@plt>
  40192d:	bf 01 00 00 00       	mov    $0x1,%edi
  401932:	e8 b9 05 00 00       	callq  401ef0 <validate>
  401937:	bf 00 00 00 00       	mov    $0x0,%edi
  40193c:	e8 ef f4 ff ff       	callq  400e30 <exit@plt>

0000000000401941 <touch2>:
  401941:	48 83 ec 08          	sub    $0x8,%rsp
  401945:	89 fa                	mov    %edi,%edx
  401947:	c7 05 ab 3b 20 00 02 	movl   $0x2,0x203bab(%rip)        # 6054fc <vlevel>
  40194e:	00 00 00 
  401951:	39 3d ad 3b 20 00    	cmp    %edi,0x203bad(%rip)        # 605504 <cookie>
  401957:	75 20                	jne    401979 <touch2+0x38>
  401959:	be 70 33 40 00       	mov    $0x403370,%esi
  40195e:	bf 01 00 00 00       	mov    $0x1,%edi
  401963:	b8 00 00 00 00       	mov    $0x0,%eax
  401968:	e8 73 f4 ff ff       	callq  400de0 <__printf_chk@plt>
  40196d:	bf 02 00 00 00       	mov    $0x2,%edi
  401972:	e8 79 05 00 00       	callq  401ef0 <validate>
  401977:	eb 1e                	jmp    401997 <touch2+0x56>
  401979:	be 98 33 40 00       	mov    $0x403398,%esi
  40197e:	bf 01 00 00 00       	mov    $0x1,%edi
  401983:	b8 00 00 00 00       	mov    $0x0,%eax
  401988:	e8 53 f4 ff ff       	callq  400de0 <__printf_chk@plt>
  40198d:	bf 02 00 00 00       	mov    $0x2,%edi
  401992:	e8 1b 06 00 00       	callq  401fb2 <fail>
  401997:	bf 00 00 00 00       	mov    $0x0,%edi
  40199c:	e8 8f f4 ff ff       	callq  400e30 <exit@plt>

00000000004019a1 <hexmatch>:
  4019a1:	41 54                	push   %r12
  4019a3:	55                   	push   %rbp
  4019a4:	53                   	push   %rbx
  4019a5:	48 83 c4 80          	add    $0xffffffffffffff80,%rsp
  4019a9:	89 fd                	mov    %edi,%ebp
  4019ab:	48 89 f3             	mov    %rsi,%rbx
  4019ae:	64 48 8b 04 25 28 00 	mov    %fs:0x28,%rax
  4019b5:	00 00 
  4019b7:	48 89 44 24 78       	mov    %rax,0x78(%rsp)
  4019bc:	31 c0                	xor    %eax,%eax
  4019be:	e8 dd f3 ff ff       	callq  400da0 <random@plt>
  4019c3:	48 89 c1             	mov    %rax,%rcx
  4019c6:	48 ba 0b d7 a3 70 3d 	movabs $0xa3d70a3d70a3d70b,%rdx
  4019cd:	0a d7 a3 
  4019d0:	48 f7 ea             	imul   %rdx
  4019d3:	48 01 ca             	add    %rcx,%rdx
  4019d6:	48 c1 fa 06          	sar    $0x6,%rdx
  4019da:	48 89 c8             	mov    %rcx,%rax
  4019dd:	48 c1 f8 3f          	sar    $0x3f,%rax
  4019e1:	48 29 c2             	sub    %rax,%rdx
  4019e4:	48 8d 04 92          	lea    (%rdx,%rdx,4),%rax
  4019e8:	48 8d 14 80          	lea    (%rax,%rax,4),%rdx
  4019ec:	48 8d 04 95 00 00 00 	lea    0x0(,%rdx,4),%rax
  4019f3:	00 
  4019f4:	48 29 c1             	sub    %rax,%rcx
  4019f7:	4c 8d 24 0c          	lea    (%rsp,%rcx,1),%r12
  4019fb:	41 89 e8             	mov    %ebp,%r8d
  4019fe:	b9 6a 33 40 00       	mov    $0x40336a,%ecx
  401a03:	48 c7 c2 ff ff ff ff 	mov    $0xffffffffffffffff,%rdx
  401a0a:	be 01 00 00 00       	mov    $0x1,%esi
  401a0f:	4c 89 e7             	mov    %r12,%rdi
  401a12:	b8 00 00 00 00       	mov    $0x0,%eax
  401a17:	e8 44 f4 ff ff       	callq  400e60 <__sprintf_chk@plt>
  401a1c:	ba 09 00 00 00       	mov    $0x9,%edx
  401a21:	4c 89 e6             	mov    %r12,%rsi
  401a24:	48 89 df             	mov    %rbx,%rdi
  401a27:	e8 74 f2 ff ff       	callq  400ca0 <strncmp@plt>
  401a2c:	85 c0                	test   %eax,%eax
  401a2e:	0f 94 c0             	sete   %al
  401a31:	48 8b 5c 24 78       	mov    0x78(%rsp),%rbx
  401a36:	64 48 33 1c 25 28 00 	xor    %fs:0x28,%rbx
  401a3d:	00 00 
  401a3f:	74 05                	je     401a46 <hexmatch+0xa5>
  401a41:	e8 9a f2 ff ff       	callq  400ce0 <__stack_chk_fail@plt>
  401a46:	0f b6 c0             	movzbl %al,%eax
  401a49:	48 83 ec 80          	sub    $0xffffffffffffff80,%rsp
  401a4d:	5b                   	pop    %rbx
  401a4e:	5d                   	pop    %rbp
  401a4f:	41 5c                	pop    %r12
  401a51:	c3                   	retq   

0000000000401a52 <touch3>:
  401a52:	53                   	push   %rbx
  401a53:	48 89 fb             	mov    %rdi,%rbx
  401a56:	c7 05 9c 3a 20 00 03 	movl   $0x3,0x203a9c(%rip)        # 6054fc <vlevel>
  401a5d:	00 00 00 
  401a60:	48 89 fe             	mov    %rdi,%rsi
  401a63:	8b 3d 9b 3a 20 00    	mov    0x203a9b(%rip),%edi        # 605504 <cookie>
  401a69:	e8 33 ff ff ff       	callq  4019a1 <hexmatch>
  401a6e:	85 c0                	test   %eax,%eax
  401a70:	74 23                	je     401a95 <touch3+0x43>
  401a72:	48 89 da             	mov    %rbx,%rdx
  401a75:	be c0 33 40 00       	mov    $0x4033c0,%esi
  401a7a:	bf 01 00 00 00       	mov    $0x1,%edi
  401a7f:	b8 00 00 00 00       	mov    $0x0,%eax
  401a84:	e8 57 f3 ff ff       	callq  400de0 <__printf_chk@plt>
  401a89:	bf 03 00 00 00       	mov    $0x3,%edi
  401a8e:	e8 5d 04 00 00       	callq  401ef0 <validate>
  401a93:	eb 21                	jmp    401ab6 <touch3+0x64>
  401a95:	48 89 da             	mov    %rbx,%rdx
  401a98:	be e8 33 40 00       	mov    $0x4033e8,%esi
  401a9d:	bf 01 00 00 00       	mov    $0x1,%edi
  401aa2:	b8 00 00 00 00       	mov    $0x0,%eax
  401aa7:	e8 34 f3 ff ff       	callq  400de0 <__printf_chk@plt>
  401aac:	bf 03 00 00 00       	mov    $0x3,%edi
  401ab1:	e8 fc 04 00 00       	callq  401fb2 <fail>
  401ab6:	bf 00 00 00 00       	mov    $0x0,%edi
  401abb:	e8 70 f3 ff ff       	callq  400e30 <exit@plt>

0000000000401ac0 <test>:
  401ac0:	48 83 ec 08          	sub    $0x8,%rsp
  401ac4:	b8 00 00 00 00       	mov    $0x0,%eax
  401ac9:	e8 31 fe ff ff       	callq  4018ff <getbuf>
  401ace:	89 c2                	mov    %eax,%edx
  401ad0:	be 10 34 40 00       	mov    $0x403410,%esi
  401ad5:	bf 01 00 00 00       	mov    $0x1,%edi
  401ada:	b8 00 00 00 00       	mov    $0x0,%eax
  401adf:	e8 fc f2 ff ff       	callq  400de0 <__printf_chk@plt>
  401ae4:	48 83 c4 08          	add    $0x8,%rsp
  401ae8:	c3                   	retq   

0000000000401ae9 <start_farm>:
  401ae9:	b8 01 00 00 00       	mov    $0x1,%eax
  401aee:	c3                   	retq   

0000000000401aef <getval_280>:
  401aef:	b8 50 87 58 90       	mov    $0x90588750,%eax
  401af4:	c3                   	retq   

0000000000401af5 <setval_111>:
  401af5:	c7 07 48 89 c7 c3    	movl   $0xc3c78948,(%rdi)
  401afb:	c3                   	retq   

0000000000401afc <setval_315>:
  401afc:	c7 07 48 89 c7 91    	movl   $0x91c78948,(%rdi)
  401b02:	c3                   	retq   

0000000000401b03 <addval_168>:
  401b03:	8d 87 01 d8 90 c3    	lea    -0x3c6f27ff(%rdi),%eax
  401b09:	c3                   	retq   

0000000000401b0a <getval_230>:
  401b0a:	b8 48 89 c7 c1       	mov    $0xc1c78948,%eax
  401b0f:	c3                   	retq   

0000000000401b10 <addval_236>:
  401b10:	8d 87 48 89 c7 c3    	lea    -0x3c3876b8(%rdi),%eax
  401b16:	c3                   	retq   

0000000000401b17 <getval_317>:
  401b17:	b8 50 58 90 90       	mov    $0x90905850,%eax
  401b1c:	c3                   	retq   

0000000000401b1d <setval_277>:
  401b1d:	c7 07 ec 18 90 c3    	movl   $0xc39018ec,(%rdi)
  401b23:	c3                   	retq   

0000000000401b24 <mid_farm>:
  401b24:	b8 01 00 00 00       	mov    $0x1,%eax
  401b29:	c3                   	retq   

0000000000401b2a <add_xy>:
  401b2a:	48 8d 04 37          	lea    (%rdi,%rsi,1),%rax
  401b2e:	c3                   	retq   

0000000000401b2f <setval_183>:
  401b2f:	c7 07 48 c9 e0 c3    	movl   $0xc3e0c948,(%rdi)
  401b35:	c3                   	retq   

0000000000401b36 <setval_227>:
  401b36:	c7 07 48 89 e0 90    	movl   $0x90e08948,(%rdi)
  401b3c:	c3                   	retq   

0000000000401b3d <getval_117>:
  401b3d:	b8 a9 c2 20 c9       	mov    $0xc920c2a9,%eax
  401b42:	c3                   	retq   

0000000000401b43 <addval_468>:
  401b43:	8d 87 8d ce 84 d2    	lea    -0x2d7b3173(%rdi),%eax
  401b49:	c3                   	retq   

0000000000401b4a <setval_243>:
  401b4a:	c7 07 4c 89 e0 c3    	movl   $0xc3e0894c,(%rdi)
  401b50:	c3                   	retq   

0000000000401b51 <getval_372>:
  401b51:	b8 99 c2 84 c0       	mov    $0xc084c299,%eax
  401b56:	c3                   	retq   

0000000000401b57 <setval_265>:
  401b57:	c7 07 81 c2 90 c3    	movl   $0xc390c281,(%rdi)
  401b5d:	c3                   	retq   

0000000000401b5e <getval_161>:
  401b5e:	b8 89 ce 18 c0       	mov    $0xc018ce89,%eax
  401b63:	c3                   	retq   

0000000000401b64 <addval_281>:
  401b64:	8d 87 89 ce 90 c1    	lea    -0x3e6f3177(%rdi),%eax
  401b6a:	c3                   	retq   

0000000000401b6b <getval_357>:
  401b6b:	b8 89 d1 c4 db       	mov    $0xdbc4d189,%eax
  401b70:	c3                   	retq   

0000000000401b71 <addval_192>:
  401b71:	8d 87 89 c2 94 90    	lea    -0x6f6b3d77(%rdi),%eax
  401b77:	c3                   	retq   

0000000000401b78 <setval_342>:
  401b78:	c7 07 89 d1 92 c3    	movl   $0xc392d189,(%rdi)
  401b7e:	c3                   	retq   

0000000000401b7f <addval_289>:
  401b7f:	8d 87 c9 ce 20 c9    	lea    -0x36df3137(%rdi),%eax
  401b85:	c3                   	retq   

0000000000401b86 <addval_276>:
  401b86:	8d 87 89 ce 84 db    	lea    -0x247b3177(%rdi),%eax
  401b8c:	c3                   	retq   

0000000000401b8d <addval_328>:
  401b8d:	8d 87 48 89 e0 90    	lea    -0x6f1f76b8(%rdi),%eax
  401b93:	c3                   	retq   

0000000000401b94 <setval_316>:
  401b94:	c7 07 89 ce 18 db    	movl   $0xdb18ce89,(%rdi)
  401b9a:	c3                   	retq   

0000000000401b9b <addval_235>:
  401b9b:	8d 87 e0 8b c2 c3    	lea    -0x3c3d7420(%rdi),%eax
  401ba1:	c3                   	retq   

0000000000401ba2 <getval_283>:
  401ba2:	b8 48 89 e0 91       	mov    $0x91e08948,%eax
  401ba7:	c3                   	retq   

0000000000401ba8 <getval_162>:
  401ba8:	b8 82 89 ce 90       	mov    $0x90ce8982,%eax
  401bad:	c3                   	retq   

0000000000401bae <addval_199>:
  401bae:	8d 87 48 89 e0 92    	lea    -0x6d1f76b8(%rdi),%eax
  401bb4:	c3                   	retq   

0000000000401bb5 <addval_324>:
  401bb5:	8d 87 89 d1 18 db    	lea    -0x24e72e77(%rdi),%eax
  401bbb:	c3                   	retq   

0000000000401bbc <getval_196>:
  401bbc:	b8 89 ce 60 c0       	mov    $0xc060ce89,%eax
  401bc1:	c3                   	retq   

0000000000401bc2 <setval_318>:
  401bc2:	c7 07 88 d1 38 c9    	movl   $0xc938d188,(%rdi)
  401bc8:	c3                   	retq   

0000000000401bc9 <getval_482>:
  401bc9:	b8 89 d1 08 db       	mov    $0xdb08d189,%eax
  401bce:	c3                   	retq   

0000000000401bcf <addval_294>:
  401bcf:	8d 87 48 8b e0 90    	lea    -0x6f1f74b8(%rdi),%eax
  401bd5:	c3                   	retq   

0000000000401bd6 <addval_275>:
  401bd6:	8d 87 99 d1 84 c0    	lea    -0x3f7b2e67(%rdi),%eax
  401bdc:	c3                   	retq   

0000000000401bdd <addval_237>:
  401bdd:	8d 87 b8 89 c2 90    	lea    -0x6f3d7648(%rdi),%eax
  401be3:	c3                   	retq   

0000000000401be4 <addval_436>:
  401be4:	8d 87 89 d1 48 db    	lea    -0x24b72e77(%rdi),%eax
  401bea:	c3                   	retq   

0000000000401beb <setval_433>:
  401beb:	c7 07 89 c2 38 c9    	movl   $0xc938c289,(%rdi)
  401bf1:	c3                   	retq   

0000000000401bf2 <setval_193>:
  401bf2:	c7 07 c9 c2 08 d2    	movl   $0xd208c2c9,(%rdi)
  401bf8:	c3                   	retq   

0000000000401bf9 <getval_473>:
  401bf9:	b8 89 d1 90 c3       	mov    $0xc390d189,%eax
  401bfe:	c3                   	retq   

0000000000401bff <getval_125>:
  401bff:	b8 48 89 e0 c7       	mov    $0xc7e08948,%eax
  401c04:	c3                   	retq   

0000000000401c05 <end_farm>:
  401c05:	b8 01 00 00 00       	mov    $0x1,%eax
  401c0a:	c3                   	retq   

0000000000401c0b <save_char>:
  401c0b:	8b 05 13 45 20 00    	mov    0x204513(%rip),%eax        # 606124 <gets_cnt>
  401c11:	3d ff 03 00 00       	cmp    $0x3ff,%eax
  401c16:	7f 49                	jg     401c61 <save_char+0x56>
  401c18:	8d 14 40             	lea    (%rax,%rax,2),%edx
  401c1b:	89 f9                	mov    %edi,%ecx
  401c1d:	c0 e9 04             	shr    $0x4,%cl
  401c20:	83 e1 0f             	and    $0xf,%ecx
  401c23:	0f b6 b1 30 37 40 00 	movzbl 0x403730(%rcx),%esi
  401c2a:	48 63 ca             	movslq %edx,%rcx
  401c2d:	40 88 b1 20 55 60 00 	mov    %sil,0x605520(%rcx)
  401c34:	8d 4a 01             	lea    0x1(%rdx),%ecx
  401c37:	83 e7 0f             	and    $0xf,%edi
  401c3a:	0f b6 b7 30 37 40 00 	movzbl 0x403730(%rdi),%esi
  401c41:	48 63 c9             	movslq %ecx,%rcx
  401c44:	40 88 b1 20 55 60 00 	mov    %sil,0x605520(%rcx)
  401c4b:	83 c2 02             	add    $0x2,%edx
  401c4e:	48 63 d2             	movslq %edx,%rdx
  401c51:	c6 82 20 55 60 00 20 	movb   $0x20,0x605520(%rdx)
  401c58:	83 c0 01             	add    $0x1,%eax
  401c5b:	89 05 c3 44 20 00    	mov    %eax,0x2044c3(%rip)        # 606124 <gets_cnt>
  401c61:	f3 c3                	repz retq 

0000000000401c63 <save_term>:
  401c63:	8b 05 bb 44 20 00    	mov    0x2044bb(%rip),%eax        # 606124 <gets_cnt>
  401c69:	8d 04 40             	lea    (%rax,%rax,2),%eax
  401c6c:	48 98                	cltq   
  401c6e:	c6 80 20 55 60 00 00 	movb   $0x0,0x605520(%rax)
  401c75:	c3                   	retq   

0000000000401c76 <check_fail>:
  401c76:	48 83 ec 08          	sub    $0x8,%rsp
  401c7a:	0f be 15 a7 44 20 00 	movsbl 0x2044a7(%rip),%edx        # 606128 <target_prefix>
  401c81:	41 b8 20 55 60 00    	mov    $0x605520,%r8d
  401c87:	8b 0d 6b 38 20 00    	mov    0x20386b(%rip),%ecx        # 6054f8 <check_level>
  401c8d:	be 33 34 40 00       	mov    $0x403433,%esi
  401c92:	bf 01 00 00 00       	mov    $0x1,%edi
  401c97:	b8 00 00 00 00       	mov    $0x0,%eax
  401c9c:	e8 3f f1 ff ff       	callq  400de0 <__printf_chk@plt>
  401ca1:	bf 01 00 00 00       	mov    $0x1,%edi
  401ca6:	e8 85 f1 ff ff       	callq  400e30 <exit@plt>

0000000000401cab <Gets>:
  401cab:	41 54                	push   %r12
  401cad:	55                   	push   %rbp
  401cae:	53                   	push   %rbx
  401caf:	49 89 fc             	mov    %rdi,%r12
  401cb2:	c7 05 68 44 20 00 00 	movl   $0x0,0x204468(%rip)        # 606124 <gets_cnt>
  401cb9:	00 00 00 
  401cbc:	48 89 fb             	mov    %rdi,%rbx
  401cbf:	eb 11                	jmp    401cd2 <Gets+0x27>
  401cc1:	48 8d 6b 01          	lea    0x1(%rbx),%rbp
  401cc5:	88 03                	mov    %al,(%rbx)
  401cc7:	0f b6 f8             	movzbl %al,%edi
  401cca:	e8 3c ff ff ff       	callq  401c0b <save_char>
  401ccf:	48 89 eb             	mov    %rbp,%rbx
  401cd2:	48 8b 3d 17 38 20 00 	mov    0x203817(%rip),%rdi        # 6054f0 <infile>
  401cd9:	e8 d2 f0 ff ff       	callq  400db0 <_IO_getc@plt>
  401cde:	83 f8 ff             	cmp    $0xffffffff,%eax
  401ce1:	74 05                	je     401ce8 <Gets+0x3d>
  401ce3:	83 f8 0a             	cmp    $0xa,%eax
  401ce6:	75 d9                	jne    401cc1 <Gets+0x16>
  401ce8:	c6 03 00             	movb   $0x0,(%rbx)
  401ceb:	b8 00 00 00 00       	mov    $0x0,%eax
  401cf0:	e8 6e ff ff ff       	callq  401c63 <save_term>
  401cf5:	4c 89 e0             	mov    %r12,%rax
  401cf8:	5b                   	pop    %rbx
  401cf9:	5d                   	pop    %rbp
  401cfa:	41 5c                	pop    %r12
  401cfc:	c3                   	retq   

0000000000401cfd <notify_server>:
  401cfd:	53                   	push   %rbx
  401cfe:	48 81 ec 10 40 00 00 	sub    $0x4010,%rsp
  401d05:	64 48 8b 04 25 28 00 	mov    %fs:0x28,%rax
  401d0c:	00 00 
  401d0e:	48 89 84 24 08 40 00 	mov    %rax,0x4008(%rsp)
  401d15:	00 
  401d16:	31 c0                	xor    %eax,%eax
  401d18:	83 3d e9 37 20 00 00 	cmpl   $0x0,0x2037e9(%rip)        # 605508 <is_checker>
  401d1f:	0f 85 aa 01 00 00    	jne    401ecf <notify_server+0x1d2>
  401d25:	89 fb                	mov    %edi,%ebx
  401d27:	8b 05 f7 43 20 00    	mov    0x2043f7(%rip),%eax        # 606124 <gets_cnt>
  401d2d:	83 c0 64             	add    $0x64,%eax
  401d30:	3d 00 20 00 00       	cmp    $0x2000,%eax
  401d35:	7e 1e                	jle    401d55 <notify_server+0x58>
  401d37:	be 68 35 40 00       	mov    $0x403568,%esi
  401d3c:	bf 01 00 00 00       	mov    $0x1,%edi
  401d41:	b8 00 00 00 00       	mov    $0x0,%eax
  401d46:	e8 95 f0 ff ff       	callq  400de0 <__printf_chk@plt>
  401d4b:	bf 01 00 00 00       	mov    $0x1,%edi
  401d50:	e8 db f0 ff ff       	callq  400e30 <exit@plt>
  401d55:	0f be 05 cc 43 20 00 	movsbl 0x2043cc(%rip),%eax        # 606128 <target_prefix>
  401d5c:	83 3d 25 37 20 00 00 	cmpl   $0x0,0x203725(%rip)        # 605488 <notify>
  401d63:	74 08                	je     401d6d <notify_server+0x70>
  401d65:	8b 15 95 37 20 00    	mov    0x203795(%rip),%edx        # 605500 <authkey>
  401d6b:	eb 05                	jmp    401d72 <notify_server+0x75>
  401d6d:	ba ff ff ff ff       	mov    $0xffffffff,%edx
  401d72:	85 db                	test   %ebx,%ebx
  401d74:	74 08                	je     401d7e <notify_server+0x81>
  401d76:	41 b9 49 34 40 00    	mov    $0x403449,%r9d
  401d7c:	eb 06                	jmp    401d84 <notify_server+0x87>
  401d7e:	41 b9 4e 34 40 00    	mov    $0x40344e,%r9d
  401d84:	68 20 55 60 00       	pushq  $0x605520
  401d89:	56                   	push   %rsi
  401d8a:	50                   	push   %rax
  401d8b:	52                   	push   %rdx
  401d8c:	44 8b 05 b5 33 20 00 	mov    0x2033b5(%rip),%r8d        # 605148 <target_id>
  401d93:	b9 53 34 40 00       	mov    $0x403453,%ecx
  401d98:	ba 00 20 00 00       	mov    $0x2000,%edx
  401d9d:	be 01 00 00 00       	mov    $0x1,%esi
  401da2:	48 8d 7c 24 20       	lea    0x20(%rsp),%rdi
  401da7:	b8 00 00 00 00       	mov    $0x0,%eax
  401dac:	e8 af f0 ff ff       	callq  400e60 <__sprintf_chk@plt>
  401db1:	48 83 c4 20          	add    $0x20,%rsp
  401db5:	83 3d cc 36 20 00 00 	cmpl   $0x0,0x2036cc(%rip)        # 605488 <notify>
  401dbc:	0f 84 81 00 00 00    	je     401e43 <notify_server+0x146>
  401dc2:	85 db                	test   %ebx,%ebx
  401dc4:	74 6e                	je     401e34 <notify_server+0x137>
  401dc6:	4c 8d 8c 24 00 20 00 	lea    0x2000(%rsp),%r9
  401dcd:	00 
  401dce:	41 b8 00 00 00 00    	mov    $0x0,%r8d
  401dd4:	48 89 e1             	mov    %rsp,%rcx
  401dd7:	48 8b 15 72 33 20 00 	mov    0x203372(%rip),%rdx        # 605150 <lab>
  401dde:	48 8b 35 73 33 20 00 	mov    0x203373(%rip),%rsi        # 605158 <course>
  401de5:	48 8b 3d 54 33 20 00 	mov    0x203354(%rip),%rdi        # 605140 <user_id>
  401dec:	e8 b9 10 00 00       	callq  402eaa <driver_post>
  401df1:	85 c0                	test   %eax,%eax
  401df3:	79 26                	jns    401e1b <notify_server+0x11e>
  401df5:	48 8d 94 24 00 20 00 	lea    0x2000(%rsp),%rdx
  401dfc:	00 
  401dfd:	be 6f 34 40 00       	mov    $0x40346f,%esi
  401e02:	bf 01 00 00 00       	mov    $0x1,%edi
  401e07:	b8 00 00 00 00       	mov    $0x0,%eax
  401e0c:	e8 cf ef ff ff       	callq  400de0 <__printf_chk@plt>
  401e11:	bf 01 00 00 00       	mov    $0x1,%edi
  401e16:	e8 15 f0 ff ff       	callq  400e30 <exit@plt>
  401e1b:	bf 98 35 40 00       	mov    $0x403598,%edi
  401e20:	e8 9b ee ff ff       	callq  400cc0 <puts@plt>
  401e25:	bf 7b 34 40 00       	mov    $0x40347b,%edi
  401e2a:	e8 91 ee ff ff       	callq  400cc0 <puts@plt>
  401e2f:	e9 9b 00 00 00       	jmpq   401ecf <notify_server+0x1d2>
  401e34:	bf 85 34 40 00       	mov    $0x403485,%edi
  401e39:	e8 82 ee ff ff       	callq  400cc0 <puts@plt>
  401e3e:	e9 8c 00 00 00       	jmpq   401ecf <notify_server+0x1d2>
  401e43:	85 db                	test   %ebx,%ebx
  401e45:	74 07                	je     401e4e <notify_server+0x151>
  401e47:	ba 49 34 40 00       	mov    $0x403449,%edx
  401e4c:	eb 05                	jmp    401e53 <notify_server+0x156>
  401e4e:	ba 4e 34 40 00       	mov    $0x40344e,%edx
  401e53:	be d0 35 40 00       	mov    $0x4035d0,%esi
  401e58:	bf 01 00 00 00       	mov    $0x1,%edi
  401e5d:	b8 00 00 00 00       	mov    $0x0,%eax
  401e62:	e8 79 ef ff ff       	callq  400de0 <__printf_chk@plt>
  401e67:	48 8b 15 d2 32 20 00 	mov    0x2032d2(%rip),%rdx        # 605140 <user_id>
  401e6e:	be 8c 34 40 00       	mov    $0x40348c,%esi
  401e73:	bf 01 00 00 00       	mov    $0x1,%edi
  401e78:	b8 00 00 00 00       	mov    $0x0,%eax
  401e7d:	e8 5e ef ff ff       	callq  400de0 <__printf_chk@plt>
  401e82:	48 8b 15 cf 32 20 00 	mov    0x2032cf(%rip),%rdx        # 605158 <course>
  401e89:	be 99 34 40 00       	mov    $0x403499,%esi
  401e8e:	bf 01 00 00 00       	mov    $0x1,%edi
  401e93:	b8 00 00 00 00       	mov    $0x0,%eax
  401e98:	e8 43 ef ff ff       	callq  400de0 <__printf_chk@plt>
  401e9d:	48 8b 15 ac 32 20 00 	mov    0x2032ac(%rip),%rdx        # 605150 <lab>
  401ea4:	be a5 34 40 00       	mov    $0x4034a5,%esi
  401ea9:	bf 01 00 00 00       	mov    $0x1,%edi
  401eae:	b8 00 00 00 00       	mov    $0x0,%eax
  401eb3:	e8 28 ef ff ff       	callq  400de0 <__printf_chk@plt>
  401eb8:	48 89 e2             	mov    %rsp,%rdx
  401ebb:	be ae 34 40 00       	mov    $0x4034ae,%esi
  401ec0:	bf 01 00 00 00       	mov    $0x1,%edi
  401ec5:	b8 00 00 00 00       	mov    $0x0,%eax
  401eca:	e8 11 ef ff ff       	callq  400de0 <__printf_chk@plt>
  401ecf:	48 8b 84 24 08 40 00 	mov    0x4008(%rsp),%rax
  401ed6:	00 
  401ed7:	64 48 33 04 25 28 00 	xor    %fs:0x28,%rax
  401ede:	00 00 
  401ee0:	74 05                	je     401ee7 <notify_server+0x1ea>
  401ee2:	e8 f9 ed ff ff       	callq  400ce0 <__stack_chk_fail@plt>
  401ee7:	48 81 c4 10 40 00 00 	add    $0x4010,%rsp
  401eee:	5b                   	pop    %rbx
  401eef:	c3                   	retq   

0000000000401ef0 <validate>:
  401ef0:	53                   	push   %rbx
  401ef1:	89 fb                	mov    %edi,%ebx
  401ef3:	83 3d 0e 36 20 00 00 	cmpl   $0x0,0x20360e(%rip)        # 605508 <is_checker>
  401efa:	74 6b                	je     401f67 <validate+0x77>
  401efc:	39 3d fa 35 20 00    	cmp    %edi,0x2035fa(%rip)        # 6054fc <vlevel>
  401f02:	74 14                	je     401f18 <validate+0x28>
  401f04:	bf ba 34 40 00       	mov    $0x4034ba,%edi
  401f09:	e8 b2 ed ff ff       	callq  400cc0 <puts@plt>
  401f0e:	b8 00 00 00 00       	mov    $0x0,%eax
  401f13:	e8 5e fd ff ff       	callq  401c76 <check_fail>
  401f18:	8b 15 da 35 20 00    	mov    0x2035da(%rip),%edx        # 6054f8 <check_level>
  401f1e:	39 d7                	cmp    %edx,%edi
  401f20:	74 20                	je     401f42 <validate+0x52>
  401f22:	89 f9                	mov    %edi,%ecx
  401f24:	be f8 35 40 00       	mov    $0x4035f8,%esi
  401f29:	bf 01 00 00 00       	mov    $0x1,%edi
  401f2e:	b8 00 00 00 00       	mov    $0x0,%eax
  401f33:	e8 a8 ee ff ff       	callq  400de0 <__printf_chk@plt>
  401f38:	b8 00 00 00 00       	mov    $0x0,%eax
  401f3d:	e8 34 fd ff ff       	callq  401c76 <check_fail>
  401f42:	0f be 15 df 41 20 00 	movsbl 0x2041df(%rip),%edx        # 606128 <target_prefix>
  401f49:	41 b8 20 55 60 00    	mov    $0x605520,%r8d
  401f4f:	89 f9                	mov    %edi,%ecx
  401f51:	be d8 34 40 00       	mov    $0x4034d8,%esi
  401f56:	bf 01 00 00 00       	mov    $0x1,%edi
  401f5b:	b8 00 00 00 00       	mov    $0x0,%eax
  401f60:	e8 7b ee ff ff       	callq  400de0 <__printf_chk@plt>
  401f65:	eb 49                	jmp    401fb0 <validate+0xc0>
  401f67:	3b 3d 8f 35 20 00    	cmp    0x20358f(%rip),%edi        # 6054fc <vlevel>
  401f6d:	74 18                	je     401f87 <validate+0x97>
  401f6f:	bf ba 34 40 00       	mov    $0x4034ba,%edi
  401f74:	e8 47 ed ff ff       	callq  400cc0 <puts@plt>
  401f79:	89 de                	mov    %ebx,%esi
  401f7b:	bf 00 00 00 00       	mov    $0x0,%edi
  401f80:	e8 78 fd ff ff       	callq  401cfd <notify_server>
  401f85:	eb 29                	jmp    401fb0 <validate+0xc0>
  401f87:	0f be 0d 9a 41 20 00 	movsbl 0x20419a(%rip),%ecx        # 606128 <target_prefix>
  401f8e:	89 fa                	mov    %edi,%edx
  401f90:	be 20 36 40 00       	mov    $0x403620,%esi
  401f95:	bf 01 00 00 00       	mov    $0x1,%edi
  401f9a:	b8 00 00 00 00       	mov    $0x0,%eax
  401f9f:	e8 3c ee ff ff       	callq  400de0 <__printf_chk@plt>
  401fa4:	89 de                	mov    %ebx,%esi
  401fa6:	bf 01 00 00 00       	mov    $0x1,%edi
  401fab:	e8 4d fd ff ff       	callq  401cfd <notify_server>
  401fb0:	5b                   	pop    %rbx
  401fb1:	c3                   	retq   

0000000000401fb2 <fail>:
  401fb2:	48 83 ec 08          	sub    $0x8,%rsp
  401fb6:	83 3d 4b 35 20 00 00 	cmpl   $0x0,0x20354b(%rip)        # 605508 <is_checker>
  401fbd:	74 0a                	je     401fc9 <fail+0x17>
  401fbf:	b8 00 00 00 00       	mov    $0x0,%eax
  401fc4:	e8 ad fc ff ff       	callq  401c76 <check_fail>
  401fc9:	89 fe                	mov    %edi,%esi
  401fcb:	bf 00 00 00 00       	mov    $0x0,%edi
  401fd0:	e8 28 fd ff ff       	callq  401cfd <notify_server>
  401fd5:	48 83 c4 08          	add    $0x8,%rsp
  401fd9:	c3                   	retq   

0000000000401fda <bushandler>:
  401fda:	48 83 ec 08          	sub    $0x8,%rsp
  401fde:	83 3d 23 35 20 00 00 	cmpl   $0x0,0x203523(%rip)        # 605508 <is_checker>
  401fe5:	74 14                	je     401ffb <bushandler+0x21>
  401fe7:	bf ed 34 40 00       	mov    $0x4034ed,%edi
  401fec:	e8 cf ec ff ff       	callq  400cc0 <puts@plt>
  401ff1:	b8 00 00 00 00       	mov    $0x0,%eax
  401ff6:	e8 7b fc ff ff       	callq  401c76 <check_fail>
  401ffb:	bf 58 36 40 00       	mov    $0x403658,%edi
  402000:	e8 bb ec ff ff       	callq  400cc0 <puts@plt>
  402005:	bf f7 34 40 00       	mov    $0x4034f7,%edi
  40200a:	e8 b1 ec ff ff       	callq  400cc0 <puts@plt>
  40200f:	be 00 00 00 00       	mov    $0x0,%esi
  402014:	bf 00 00 00 00       	mov    $0x0,%edi
  402019:	e8 df fc ff ff       	callq  401cfd <notify_server>
  40201e:	bf 01 00 00 00       	mov    $0x1,%edi
  402023:	e8 08 ee ff ff       	callq  400e30 <exit@plt>

0000000000402028 <seghandler>:
  402028:	48 83 ec 08          	sub    $0x8,%rsp
  40202c:	83 3d d5 34 20 00 00 	cmpl   $0x0,0x2034d5(%rip)        # 605508 <is_checker>
  402033:	74 14                	je     402049 <seghandler+0x21>
  402035:	bf 0d 35 40 00       	mov    $0x40350d,%edi
  40203a:	e8 81 ec ff ff       	callq  400cc0 <puts@plt>
  40203f:	b8 00 00 00 00       	mov    $0x0,%eax
  402044:	e8 2d fc ff ff       	callq  401c76 <check_fail>
  402049:	bf 78 36 40 00       	mov    $0x403678,%edi
  40204e:	e8 6d ec ff ff       	callq  400cc0 <puts@plt>
  402053:	bf f7 34 40 00       	mov    $0x4034f7,%edi
  402058:	e8 63 ec ff ff       	callq  400cc0 <puts@plt>
  40205d:	be 00 00 00 00       	mov    $0x0,%esi
  402062:	bf 00 00 00 00       	mov    $0x0,%edi
  402067:	e8 91 fc ff ff       	callq  401cfd <notify_server>
  40206c:	bf 01 00 00 00       	mov    $0x1,%edi
  402071:	e8 ba ed ff ff       	callq  400e30 <exit@plt>

0000000000402076 <illegalhandler>:
  402076:	48 83 ec 08          	sub    $0x8,%rsp
  40207a:	83 3d 87 34 20 00 00 	cmpl   $0x0,0x203487(%rip)        # 605508 <is_checker>
  402081:	74 14                	je     402097 <illegalhandler+0x21>
  402083:	bf 20 35 40 00       	mov    $0x403520,%edi
  402088:	e8 33 ec ff ff       	callq  400cc0 <puts@plt>
  40208d:	b8 00 00 00 00       	mov    $0x0,%eax
  402092:	e8 df fb ff ff       	callq  401c76 <check_fail>
  402097:	bf a0 36 40 00       	mov    $0x4036a0,%edi
  40209c:	e8 1f ec ff ff       	callq  400cc0 <puts@plt>
  4020a1:	bf f7 34 40 00       	mov    $0x4034f7,%edi
  4020a6:	e8 15 ec ff ff       	callq  400cc0 <puts@plt>
  4020ab:	be 00 00 00 00       	mov    $0x0,%esi
  4020b0:	bf 00 00 00 00       	mov    $0x0,%edi
  4020b5:	e8 43 fc ff ff       	callq  401cfd <notify_server>
  4020ba:	bf 01 00 00 00       	mov    $0x1,%edi
  4020bf:	e8 6c ed ff ff       	callq  400e30 <exit@plt>

00000000004020c4 <sigalrmhandler>:
  4020c4:	48 83 ec 08          	sub    $0x8,%rsp
  4020c8:	83 3d 39 34 20 00 00 	cmpl   $0x0,0x203439(%rip)        # 605508 <is_checker>
  4020cf:	74 14                	je     4020e5 <sigalrmhandler+0x21>
  4020d1:	bf 34 35 40 00       	mov    $0x403534,%edi
  4020d6:	e8 e5 eb ff ff       	callq  400cc0 <puts@plt>
  4020db:	b8 00 00 00 00       	mov    $0x0,%eax
  4020e0:	e8 91 fb ff ff       	callq  401c76 <check_fail>
  4020e5:	ba 05 00 00 00       	mov    $0x5,%edx
  4020ea:	be d0 36 40 00       	mov    $0x4036d0,%esi
  4020ef:	bf 01 00 00 00       	mov    $0x1,%edi
  4020f4:	b8 00 00 00 00       	mov    $0x0,%eax
  4020f9:	e8 e2 ec ff ff       	callq  400de0 <__printf_chk@plt>
  4020fe:	be 00 00 00 00       	mov    $0x0,%esi
  402103:	bf 00 00 00 00       	mov    $0x0,%edi
  402108:	e8 f0 fb ff ff       	callq  401cfd <notify_server>
  40210d:	bf 01 00 00 00       	mov    $0x1,%edi
  402112:	e8 19 ed ff ff       	callq  400e30 <exit@plt>

0000000000402117 <launch>:
  402117:	55                   	push   %rbp
  402118:	48 89 e5             	mov    %rsp,%rbp
  40211b:	48 83 ec 10          	sub    $0x10,%rsp
  40211f:	48 89 fa             	mov    %rdi,%rdx
  402122:	64 48 8b 04 25 28 00 	mov    %fs:0x28,%rax
  402129:	00 00 
  40212b:	48 89 45 f8          	mov    %rax,-0x8(%rbp)
  40212f:	31 c0                	xor    %eax,%eax
  402131:	48 8d 47 1e          	lea    0x1e(%rdi),%rax
  402135:	48 83 e0 f0          	and    $0xfffffffffffffff0,%rax
  402139:	48 29 c4             	sub    %rax,%rsp
  40213c:	48 8d 7c 24 0f       	lea    0xf(%rsp),%rdi
  402141:	48 83 e7 f0          	and    $0xfffffffffffffff0,%rdi
  402145:	be f4 00 00 00       	mov    $0xf4,%esi
  40214a:	e8 b1 eb ff ff       	callq  400d00 <memset@plt>
  40214f:	48 8b 05 4a 33 20 00 	mov    0x20334a(%rip),%rax        # 6054a0 <stdin@@GLIBC_2.2.5>
  402156:	48 39 05 93 33 20 00 	cmp    %rax,0x203393(%rip)        # 6054f0 <infile>
  40215d:	75 14                	jne    402173 <launch+0x5c>
  40215f:	be 3c 35 40 00       	mov    $0x40353c,%esi
  402164:	bf 01 00 00 00       	mov    $0x1,%edi
  402169:	b8 00 00 00 00       	mov    $0x0,%eax
  40216e:	e8 6d ec ff ff       	callq  400de0 <__printf_chk@plt>
  402173:	c7 05 7f 33 20 00 00 	movl   $0x0,0x20337f(%rip)        # 6054fc <vlevel>
  40217a:	00 00 00 
  40217d:	b8 00 00 00 00       	mov    $0x0,%eax
  402182:	e8 39 f9 ff ff       	callq  401ac0 <test>
  402187:	83 3d 7a 33 20 00 00 	cmpl   $0x0,0x20337a(%rip)        # 605508 <is_checker>
  40218e:	74 14                	je     4021a4 <launch+0x8d>
  402190:	bf 49 35 40 00       	mov    $0x403549,%edi
  402195:	e8 26 eb ff ff       	callq  400cc0 <puts@plt>
  40219a:	b8 00 00 00 00       	mov    $0x0,%eax
  40219f:	e8 d2 fa ff ff       	callq  401c76 <check_fail>
  4021a4:	bf 54 35 40 00       	mov    $0x403554,%edi
  4021a9:	e8 12 eb ff ff       	callq  400cc0 <puts@plt>
  4021ae:	48 8b 45 f8          	mov    -0x8(%rbp),%rax
  4021b2:	64 48 33 04 25 28 00 	xor    %fs:0x28,%rax
  4021b9:	00 00 
  4021bb:	74 05                	je     4021c2 <launch+0xab>
  4021bd:	e8 1e eb ff ff       	callq  400ce0 <__stack_chk_fail@plt>
  4021c2:	c9                   	leaveq 
  4021c3:	c3                   	retq   

00000000004021c4 <stable_launch>:
  4021c4:	53                   	push   %rbx
  4021c5:	48 89 3d 1c 33 20 00 	mov    %rdi,0x20331c(%rip)        # 6054e8 <global_offset>
  4021cc:	41 b9 00 00 00 00    	mov    $0x0,%r9d
  4021d2:	41 b8 00 00 00 00    	mov    $0x0,%r8d
  4021d8:	b9 32 01 00 00       	mov    $0x132,%ecx
  4021dd:	ba 07 00 00 00       	mov    $0x7,%edx
  4021e2:	be 00 00 10 00       	mov    $0x100000,%esi
  4021e7:	bf 00 60 58 55       	mov    $0x55586000,%edi
  4021ec:	e8 ff ea ff ff       	callq  400cf0 <mmap@plt>
  4021f1:	48 89 c3             	mov    %rax,%rbx
  4021f4:	48 3d 00 60 58 55    	cmp    $0x55586000,%rax
  4021fa:	74 37                	je     402233 <stable_launch+0x6f>
  4021fc:	be 00 00 10 00       	mov    $0x100000,%esi
  402201:	48 89 c7             	mov    %rax,%rdi
  402204:	e8 c7 eb ff ff       	callq  400dd0 <munmap@plt>
  402209:	b9 00 60 58 55       	mov    $0x55586000,%ecx
  40220e:	ba 08 37 40 00       	mov    $0x403708,%edx
  402213:	be 01 00 00 00       	mov    $0x1,%esi
  402218:	48 8b 3d a1 32 20 00 	mov    0x2032a1(%rip),%rdi        # 6054c0 <stderr@@GLIBC_2.2.5>
  40221f:	b8 00 00 00 00       	mov    $0x0,%eax
  402224:	e8 27 ec ff ff       	callq  400e50 <__fprintf_chk@plt>
  402229:	bf 01 00 00 00       	mov    $0x1,%edi
  40222e:	e8 fd eb ff ff       	callq  400e30 <exit@plt>
  402233:	48 8d 90 f8 ff 0f 00 	lea    0xffff8(%rax),%rdx
  40223a:	48 89 15 ef 3e 20 00 	mov    %rdx,0x203eef(%rip)        # 606130 <stack_top>
  402241:	48 89 e0             	mov    %rsp,%rax
  402244:	48 89 d4             	mov    %rdx,%rsp
  402247:	48 89 c2             	mov    %rax,%rdx
  40224a:	48 89 15 8f 32 20 00 	mov    %rdx,0x20328f(%rip)        # 6054e0 <global_save_stack>
  402251:	48 8b 3d 90 32 20 00 	mov    0x203290(%rip),%rdi        # 6054e8 <global_offset>
  402258:	e8 ba fe ff ff       	callq  402117 <launch>
  40225d:	48 8b 05 7c 32 20 00 	mov    0x20327c(%rip),%rax        # 6054e0 <global_save_stack>
  402264:	48 89 c4             	mov    %rax,%rsp
  402267:	be 00 00 10 00       	mov    $0x100000,%esi
  40226c:	48 89 df             	mov    %rbx,%rdi
  40226f:	e8 5c eb ff ff       	callq  400dd0 <munmap@plt>
  402274:	5b                   	pop    %rbx
  402275:	c3                   	retq   

0000000000402276 <rio_readinitb>:
  402276:	89 37                	mov    %esi,(%rdi)
  402278:	c7 47 04 00 00 00 00 	movl   $0x0,0x4(%rdi)
  40227f:	48 8d 47 10          	lea    0x10(%rdi),%rax
  402283:	48 89 47 08          	mov    %rax,0x8(%rdi)
  402287:	c3                   	retq   

0000000000402288 <sigalrm_handler>:
  402288:	48 83 ec 08          	sub    $0x8,%rsp
  40228c:	b9 00 00 00 00       	mov    $0x0,%ecx
  402291:	ba 40 37 40 00       	mov    $0x403740,%edx
  402296:	be 01 00 00 00       	mov    $0x1,%esi
  40229b:	48 8b 3d 1e 32 20 00 	mov    0x20321e(%rip),%rdi        # 6054c0 <stderr@@GLIBC_2.2.5>
  4022a2:	b8 00 00 00 00       	mov    $0x0,%eax
  4022a7:	e8 a4 eb ff ff       	callq  400e50 <__fprintf_chk@plt>
  4022ac:	bf 01 00 00 00       	mov    $0x1,%edi
  4022b1:	e8 7a eb ff ff       	callq  400e30 <exit@plt>

00000000004022b6 <rio_writen>:
  4022b6:	41 55                	push   %r13
  4022b8:	41 54                	push   %r12
  4022ba:	55                   	push   %rbp
  4022bb:	53                   	push   %rbx
  4022bc:	48 83 ec 08          	sub    $0x8,%rsp
  4022c0:	41 89 fc             	mov    %edi,%r12d
  4022c3:	48 89 f5             	mov    %rsi,%rbp
  4022c6:	49 89 d5             	mov    %rdx,%r13
  4022c9:	48 89 d3             	mov    %rdx,%rbx
  4022cc:	eb 28                	jmp    4022f6 <rio_writen+0x40>
  4022ce:	48 89 da             	mov    %rbx,%rdx
  4022d1:	48 89 ee             	mov    %rbp,%rsi
  4022d4:	44 89 e7             	mov    %r12d,%edi
  4022d7:	e8 f4 e9 ff ff       	callq  400cd0 <write@plt>
  4022dc:	48 85 c0             	test   %rax,%rax
  4022df:	7f 0f                	jg     4022f0 <rio_writen+0x3a>
  4022e1:	e8 9a e9 ff ff       	callq  400c80 <__errno_location@plt>
  4022e6:	83 38 04             	cmpl   $0x4,(%rax)
  4022e9:	75 15                	jne    402300 <rio_writen+0x4a>
  4022eb:	b8 00 00 00 00       	mov    $0x0,%eax
  4022f0:	48 29 c3             	sub    %rax,%rbx
  4022f3:	48 01 c5             	add    %rax,%rbp
  4022f6:	48 85 db             	test   %rbx,%rbx
  4022f9:	75 d3                	jne    4022ce <rio_writen+0x18>
  4022fb:	4c 89 e8             	mov    %r13,%rax
  4022fe:	eb 07                	jmp    402307 <rio_writen+0x51>
  402300:	48 c7 c0 ff ff ff ff 	mov    $0xffffffffffffffff,%rax
  402307:	48 83 c4 08          	add    $0x8,%rsp
  40230b:	5b                   	pop    %rbx
  40230c:	5d                   	pop    %rbp
  40230d:	41 5c                	pop    %r12
  40230f:	41 5d                	pop    %r13
  402311:	c3                   	retq   

0000000000402312 <rio_read>:
  402312:	41 55                	push   %r13
  402314:	41 54                	push   %r12
  402316:	55                   	push   %rbp
  402317:	53                   	push   %rbx
  402318:	48 83 ec 08          	sub    $0x8,%rsp
  40231c:	48 89 fb             	mov    %rdi,%rbx
  40231f:	49 89 f5             	mov    %rsi,%r13
  402322:	49 89 d4             	mov    %rdx,%r12
  402325:	eb 2e                	jmp    402355 <rio_read+0x43>
  402327:	48 8d 6b 10          	lea    0x10(%rbx),%rbp
  40232b:	8b 3b                	mov    (%rbx),%edi
  40232d:	ba 00 20 00 00       	mov    $0x2000,%edx
  402332:	48 89 ee             	mov    %rbp,%rsi
  402335:	e8 f6 e9 ff ff       	callq  400d30 <read@plt>
  40233a:	89 43 04             	mov    %eax,0x4(%rbx)
  40233d:	85 c0                	test   %eax,%eax
  40233f:	79 0c                	jns    40234d <rio_read+0x3b>
  402341:	e8 3a e9 ff ff       	callq  400c80 <__errno_location@plt>
  402346:	83 38 04             	cmpl   $0x4,(%rax)
  402349:	74 0a                	je     402355 <rio_read+0x43>
  40234b:	eb 37                	jmp    402384 <rio_read+0x72>
  40234d:	85 c0                	test   %eax,%eax
  40234f:	74 3c                	je     40238d <rio_read+0x7b>
  402351:	48 89 6b 08          	mov    %rbp,0x8(%rbx)
  402355:	8b 6b 04             	mov    0x4(%rbx),%ebp
  402358:	85 ed                	test   %ebp,%ebp
  40235a:	7e cb                	jle    402327 <rio_read+0x15>
  40235c:	89 e8                	mov    %ebp,%eax
  40235e:	49 39 c4             	cmp    %rax,%r12
  402361:	77 03                	ja     402366 <rio_read+0x54>
  402363:	44 89 e5             	mov    %r12d,%ebp
  402366:	4c 63 e5             	movslq %ebp,%r12
  402369:	48 8b 73 08          	mov    0x8(%rbx),%rsi
  40236d:	4c 89 e2             	mov    %r12,%rdx
  402370:	4c 89 ef             	mov    %r13,%rdi
  402373:	e8 08 ea ff ff       	callq  400d80 <memcpy@plt>
  402378:	4c 01 63 08          	add    %r12,0x8(%rbx)
  40237c:	29 6b 04             	sub    %ebp,0x4(%rbx)
  40237f:	4c 89 e0             	mov    %r12,%rax
  402382:	eb 0e                	jmp    402392 <rio_read+0x80>
  402384:	48 c7 c0 ff ff ff ff 	mov    $0xffffffffffffffff,%rax
  40238b:	eb 05                	jmp    402392 <rio_read+0x80>
  40238d:	b8 00 00 00 00       	mov    $0x0,%eax
  402392:	48 83 c4 08          	add    $0x8,%rsp
  402396:	5b                   	pop    %rbx
  402397:	5d                   	pop    %rbp
  402398:	41 5c                	pop    %r12
  40239a:	41 5d                	pop    %r13
  40239c:	c3                   	retq   

000000000040239d <rio_readlineb>:
  40239d:	41 55                	push   %r13
  40239f:	41 54                	push   %r12
  4023a1:	55                   	push   %rbp
  4023a2:	53                   	push   %rbx
  4023a3:	48 83 ec 18          	sub    $0x18,%rsp
  4023a7:	49 89 fd             	mov    %rdi,%r13
  4023aa:	48 89 f5             	mov    %rsi,%rbp
  4023ad:	49 89 d4             	mov    %rdx,%r12
  4023b0:	64 48 8b 04 25 28 00 	mov    %fs:0x28,%rax
  4023b7:	00 00 
  4023b9:	48 89 44 24 08       	mov    %rax,0x8(%rsp)
  4023be:	31 c0                	xor    %eax,%eax
  4023c0:	bb 01 00 00 00       	mov    $0x1,%ebx
  4023c5:	eb 3f                	jmp    402406 <rio_readlineb+0x69>
  4023c7:	ba 01 00 00 00       	mov    $0x1,%edx
  4023cc:	48 8d 74 24 07       	lea    0x7(%rsp),%rsi
  4023d1:	4c 89 ef             	mov    %r13,%rdi
  4023d4:	e8 39 ff ff ff       	callq  402312 <rio_read>
  4023d9:	83 f8 01             	cmp    $0x1,%eax
  4023dc:	75 15                	jne    4023f3 <rio_readlineb+0x56>
  4023de:	48 8d 45 01          	lea    0x1(%rbp),%rax
  4023e2:	0f b6 54 24 07       	movzbl 0x7(%rsp),%edx
  4023e7:	88 55 00             	mov    %dl,0x0(%rbp)
  4023ea:	80 7c 24 07 0a       	cmpb   $0xa,0x7(%rsp)
  4023ef:	75 0e                	jne    4023ff <rio_readlineb+0x62>
  4023f1:	eb 1a                	jmp    40240d <rio_readlineb+0x70>
  4023f3:	85 c0                	test   %eax,%eax
  4023f5:	75 22                	jne    402419 <rio_readlineb+0x7c>
  4023f7:	48 83 fb 01          	cmp    $0x1,%rbx
  4023fb:	75 13                	jne    402410 <rio_readlineb+0x73>
  4023fd:	eb 23                	jmp    402422 <rio_readlineb+0x85>
  4023ff:	48 83 c3 01          	add    $0x1,%rbx
  402403:	48 89 c5             	mov    %rax,%rbp
  402406:	4c 39 e3             	cmp    %r12,%rbx
  402409:	72 bc                	jb     4023c7 <rio_readlineb+0x2a>
  40240b:	eb 03                	jmp    402410 <rio_readlineb+0x73>
  40240d:	48 89 c5             	mov    %rax,%rbp
  402410:	c6 45 00 00          	movb   $0x0,0x0(%rbp)
  402414:	48 89 d8             	mov    %rbx,%rax
  402417:	eb 0e                	jmp    402427 <rio_readlineb+0x8a>
  402419:	48 c7 c0 ff ff ff ff 	mov    $0xffffffffffffffff,%rax
  402420:	eb 05                	jmp    402427 <rio_readlineb+0x8a>
  402422:	b8 00 00 00 00       	mov    $0x0,%eax
  402427:	48 8b 4c 24 08       	mov    0x8(%rsp),%rcx
  40242c:	64 48 33 0c 25 28 00 	xor    %fs:0x28,%rcx
  402433:	00 00 
  402435:	74 05                	je     40243c <rio_readlineb+0x9f>
  402437:	e8 a4 e8 ff ff       	callq  400ce0 <__stack_chk_fail@plt>
  40243c:	48 83 c4 18          	add    $0x18,%rsp
  402440:	5b                   	pop    %rbx
  402441:	5d                   	pop    %rbp
  402442:	41 5c                	pop    %r12
  402444:	41 5d                	pop    %r13
  402446:	c3                   	retq   

0000000000402447 <urlencode>:
  402447:	41 54                	push   %r12
  402449:	55                   	push   %rbp
  40244a:	53                   	push   %rbx
  40244b:	48 83 ec 10          	sub    $0x10,%rsp
  40244f:	48 89 fb             	mov    %rdi,%rbx
  402452:	48 89 f5             	mov    %rsi,%rbp
  402455:	64 48 8b 04 25 28 00 	mov    %fs:0x28,%rax
  40245c:	00 00 
  40245e:	48 89 44 24 08       	mov    %rax,0x8(%rsp)
  402463:	31 c0                	xor    %eax,%eax
  402465:	48 c7 c1 ff ff ff ff 	mov    $0xffffffffffffffff,%rcx
  40246c:	f2 ae                	repnz scas %es:(%rdi),%al
  40246e:	48 f7 d1             	not    %rcx
  402471:	8d 41 ff             	lea    -0x1(%rcx),%eax
  402474:	e9 aa 00 00 00       	jmpq   402523 <urlencode+0xdc>
  402479:	44 0f b6 03          	movzbl (%rbx),%r8d
  40247d:	41 80 f8 2a          	cmp    $0x2a,%r8b
  402481:	0f 94 c2             	sete   %dl
  402484:	41 80 f8 2d          	cmp    $0x2d,%r8b
  402488:	0f 94 c0             	sete   %al
  40248b:	08 c2                	or     %al,%dl
  40248d:	75 24                	jne    4024b3 <urlencode+0x6c>
  40248f:	41 80 f8 2e          	cmp    $0x2e,%r8b
  402493:	74 1e                	je     4024b3 <urlencode+0x6c>
  402495:	41 80 f8 5f          	cmp    $0x5f,%r8b
  402499:	74 18                	je     4024b3 <urlencode+0x6c>
  40249b:	41 8d 40 d0          	lea    -0x30(%r8),%eax
  40249f:	3c 09                	cmp    $0x9,%al
  4024a1:	76 10                	jbe    4024b3 <urlencode+0x6c>
  4024a3:	41 8d 40 bf          	lea    -0x41(%r8),%eax
  4024a7:	3c 19                	cmp    $0x19,%al
  4024a9:	76 08                	jbe    4024b3 <urlencode+0x6c>
  4024ab:	41 8d 40 9f          	lea    -0x61(%r8),%eax
  4024af:	3c 19                	cmp    $0x19,%al
  4024b1:	77 0a                	ja     4024bd <urlencode+0x76>
  4024b3:	44 88 45 00          	mov    %r8b,0x0(%rbp)
  4024b7:	48 8d 6d 01          	lea    0x1(%rbp),%rbp
  4024bb:	eb 5f                	jmp    40251c <urlencode+0xd5>
  4024bd:	41 80 f8 20          	cmp    $0x20,%r8b
  4024c1:	75 0a                	jne    4024cd <urlencode+0x86>
  4024c3:	c6 45 00 2b          	movb   $0x2b,0x0(%rbp)
  4024c7:	48 8d 6d 01          	lea    0x1(%rbp),%rbp
  4024cb:	eb 4f                	jmp    40251c <urlencode+0xd5>
  4024cd:	41 8d 40 e0          	lea    -0x20(%r8),%eax
  4024d1:	3c 5f                	cmp    $0x5f,%al
  4024d3:	0f 96 c2             	setbe  %dl
  4024d6:	41 80 f8 09          	cmp    $0x9,%r8b
  4024da:	0f 94 c0             	sete   %al
  4024dd:	08 c2                	or     %al,%dl
  4024df:	74 50                	je     402531 <urlencode+0xea>
  4024e1:	45 0f b6 c0          	movzbl %r8b,%r8d
  4024e5:	b9 d8 37 40 00       	mov    $0x4037d8,%ecx
  4024ea:	ba 08 00 00 00       	mov    $0x8,%edx
  4024ef:	be 01 00 00 00       	mov    $0x1,%esi
  4024f4:	48 89 e7             	mov    %rsp,%rdi
  4024f7:	b8 00 00 00 00       	mov    $0x0,%eax
  4024fc:	e8 5f e9 ff ff       	callq  400e60 <__sprintf_chk@plt>
  402501:	0f b6 04 24          	movzbl (%rsp),%eax
  402505:	88 45 00             	mov    %al,0x0(%rbp)
  402508:	0f b6 44 24 01       	movzbl 0x1(%rsp),%eax
  40250d:	88 45 01             	mov    %al,0x1(%rbp)
  402510:	0f b6 44 24 02       	movzbl 0x2(%rsp),%eax
  402515:	88 45 02             	mov    %al,0x2(%rbp)
  402518:	48 8d 6d 03          	lea    0x3(%rbp),%rbp
  40251c:	48 83 c3 01          	add    $0x1,%rbx
  402520:	44 89 e0             	mov    %r12d,%eax
  402523:	44 8d 60 ff          	lea    -0x1(%rax),%r12d
  402527:	85 c0                	test   %eax,%eax
  402529:	0f 85 4a ff ff ff    	jne    402479 <urlencode+0x32>
  40252f:	eb 05                	jmp    402536 <urlencode+0xef>
  402531:	b8 ff ff ff ff       	mov    $0xffffffff,%eax
  402536:	48 8b 74 24 08       	mov    0x8(%rsp),%rsi
  40253b:	64 48 33 34 25 28 00 	xor    %fs:0x28,%rsi
  402542:	00 00 
  402544:	74 05                	je     40254b <urlencode+0x104>
  402546:	e8 95 e7 ff ff       	callq  400ce0 <__stack_chk_fail@plt>
  40254b:	48 83 c4 10          	add    $0x10,%rsp
  40254f:	5b                   	pop    %rbx
  402550:	5d                   	pop    %rbp
  402551:	41 5c                	pop    %r12
  402553:	c3                   	retq   

0000000000402554 <submitr>:
  402554:	41 57                	push   %r15
  402556:	41 56                	push   %r14
  402558:	41 55                	push   %r13
  40255a:	41 54                	push   %r12
  40255c:	55                   	push   %rbp
  40255d:	53                   	push   %rbx
  40255e:	48 81 ec 58 a0 00 00 	sub    $0xa058,%rsp
  402565:	49 89 fc             	mov    %rdi,%r12
  402568:	89 74 24 04          	mov    %esi,0x4(%rsp)
  40256c:	49 89 d7             	mov    %rdx,%r15
  40256f:	49 89 ce             	mov    %rcx,%r14
  402572:	4c 89 44 24 08       	mov    %r8,0x8(%rsp)
  402577:	4d 89 cd             	mov    %r9,%r13
  40257a:	48 8b 9c 24 90 a0 00 	mov    0xa090(%rsp),%rbx
  402581:	00 
  402582:	64 48 8b 04 25 28 00 	mov    %fs:0x28,%rax
  402589:	00 00 
  40258b:	48 89 84 24 48 a0 00 	mov    %rax,0xa048(%rsp)
  402592:	00 
  402593:	31 c0                	xor    %eax,%eax
  402595:	c7 44 24 1c 00 00 00 	movl   $0x0,0x1c(%rsp)
  40259c:	00 
  40259d:	ba 00 00 00 00       	mov    $0x0,%edx
  4025a2:	be 01 00 00 00       	mov    $0x1,%esi
  4025a7:	bf 02 00 00 00       	mov    $0x2,%edi
  4025ac:	e8 bf e8 ff ff       	callq  400e70 <socket@plt>
  4025b1:	85 c0                	test   %eax,%eax
  4025b3:	79 4e                	jns    402603 <submitr+0xaf>
  4025b5:	48 b8 45 72 72 6f 72 	movabs $0x43203a726f727245,%rax
  4025bc:	3a 20 43 
  4025bf:	48 89 03             	mov    %rax,(%rbx)
  4025c2:	48 b8 6c 69 65 6e 74 	movabs $0x6e7520746e65696c,%rax
  4025c9:	20 75 6e 
  4025cc:	48 89 43 08          	mov    %rax,0x8(%rbx)
  4025d0:	48 b8 61 62 6c 65 20 	movabs $0x206f7420656c6261,%rax
  4025d7:	74 6f 20 
  4025da:	48 89 43 10          	mov    %rax,0x10(%rbx)
  4025de:	48 b8 63 72 65 61 74 	movabs $0x7320657461657263,%rax
  4025e5:	65 20 73 
  4025e8:	48 89 43 18          	mov    %rax,0x18(%rbx)
  4025ec:	c7 43 20 6f 63 6b 65 	movl   $0x656b636f,0x20(%rbx)
  4025f3:	66 c7 43 24 74 00    	movw   $0x74,0x24(%rbx)
  4025f9:	b8 ff ff ff ff       	mov    $0xffffffff,%eax
  4025fe:	e9 61 06 00 00       	jmpq   402c64 <submitr+0x710>
  402603:	89 c5                	mov    %eax,%ebp
  402605:	4c 89 e7             	mov    %r12,%rdi
  402608:	e8 43 e7 ff ff       	callq  400d50 <gethostbyname@plt>
  40260d:	48 85 c0             	test   %rax,%rax
  402610:	75 67                	jne    402679 <submitr+0x125>
  402612:	48 b8 45 72 72 6f 72 	movabs $0x44203a726f727245,%rax
  402619:	3a 20 44 
  40261c:	48 89 03             	mov    %rax,(%rbx)
  40261f:	48 b8 4e 53 20 69 73 	movabs $0x6e7520736920534e,%rax
  402626:	20 75 6e 
  402629:	48 89 43 08          	mov    %rax,0x8(%rbx)
  40262d:	48 b8 61 62 6c 65 20 	movabs $0x206f7420656c6261,%rax
  402634:	74 6f 20 
  402637:	48 89 43 10          	mov    %rax,0x10(%rbx)
  40263b:	48 b8 72 65 73 6f 6c 	movabs $0x2065766c6f736572,%rax
  402642:	76 65 20 
  402645:	48 89 43 18          	mov    %rax,0x18(%rbx)
  402649:	48 b8 73 65 72 76 65 	movabs $0x6120726576726573,%rax
  402650:	72 20 61 
  402653:	48 89 43 20          	mov    %rax,0x20(%rbx)
  402657:	c7 43 28 64 64 72 65 	movl   $0x65726464,0x28(%rbx)
  40265e:	66 c7 43 2c 73 73    	movw   $0x7373,0x2c(%rbx)
  402664:	c6 43 2e 00          	movb   $0x0,0x2e(%rbx)
  402668:	89 ef                	mov    %ebp,%edi
  40266a:	e8 b1 e6 ff ff       	callq  400d20 <close@plt>
  40266f:	b8 ff ff ff ff       	mov    $0xffffffff,%eax
  402674:	e9 eb 05 00 00       	jmpq   402c64 <submitr+0x710>
  402679:	48 c7 44 24 20 00 00 	movq   $0x0,0x20(%rsp)
  402680:	00 00 
  402682:	48 c7 44 24 28 00 00 	movq   $0x0,0x28(%rsp)
  402689:	00 00 
  40268b:	66 c7 44 24 20 02 00 	movw   $0x2,0x20(%rsp)
  402692:	48 63 50 14          	movslq 0x14(%rax),%rdx
  402696:	48 8b 40 18          	mov    0x18(%rax),%rax
  40269a:	48 8b 30             	mov    (%rax),%rsi
  40269d:	48 8d 7c 24 24       	lea    0x24(%rsp),%rdi
  4026a2:	b9 0c 00 00 00       	mov    $0xc,%ecx
  4026a7:	e8 b4 e6 ff ff       	callq  400d60 <__memmove_chk@plt>
  4026ac:	0f b7 44 24 04       	movzwl 0x4(%rsp),%eax
  4026b1:	66 c1 c8 08          	ror    $0x8,%ax
  4026b5:	66 89 44 24 22       	mov    %ax,0x22(%rsp)
  4026ba:	ba 10 00 00 00       	mov    $0x10,%edx
  4026bf:	48 8d 74 24 20       	lea    0x20(%rsp),%rsi
  4026c4:	89 ef                	mov    %ebp,%edi
  4026c6:	e8 75 e7 ff ff       	callq  400e40 <connect@plt>
  4026cb:	85 c0                	test   %eax,%eax
  4026cd:	79 59                	jns    402728 <submitr+0x1d4>
  4026cf:	48 b8 45 72 72 6f 72 	movabs $0x55203a726f727245,%rax
  4026d6:	3a 20 55 
  4026d9:	48 89 03             	mov    %rax,(%rbx)
  4026dc:	48 b8 6e 61 62 6c 65 	movabs $0x6f7420656c62616e,%rax
  4026e3:	20 74 6f 
  4026e6:	48 89 43 08          	mov    %rax,0x8(%rbx)
  4026ea:	48 b8 20 63 6f 6e 6e 	movabs $0x7463656e6e6f6320,%rax
  4026f1:	65 63 74 
  4026f4:	48 89 43 10          	mov    %rax,0x10(%rbx)
  4026f8:	48 b8 20 74 6f 20 74 	movabs $0x20656874206f7420,%rax
  4026ff:	68 65 20 
  402702:	48 89 43 18          	mov    %rax,0x18(%rbx)
  402706:	c7 43 20 73 65 72 76 	movl   $0x76726573,0x20(%rbx)
  40270d:	66 c7 43 24 65 72    	movw   $0x7265,0x24(%rbx)
  402713:	c6 43 26 00          	movb   $0x0,0x26(%rbx)
  402717:	89 ef                	mov    %ebp,%edi
  402719:	e8 02 e6 ff ff       	callq  400d20 <close@plt>
  40271e:	b8 ff ff ff ff       	mov    $0xffffffff,%eax
  402723:	e9 3c 05 00 00       	jmpq   402c64 <submitr+0x710>
  402728:	48 c7 c6 ff ff ff ff 	mov    $0xffffffffffffffff,%rsi
  40272f:	b8 00 00 00 00       	mov    $0x0,%eax
  402734:	48 89 f1             	mov    %rsi,%rcx
  402737:	4c 89 ef             	mov    %r13,%rdi
  40273a:	f2 ae                	repnz scas %es:(%rdi),%al
  40273c:	48 89 ca             	mov    %rcx,%rdx
  40273f:	48 f7 d2             	not    %rdx
  402742:	48 89 f1             	mov    %rsi,%rcx
  402745:	4c 89 ff             	mov    %r15,%rdi
  402748:	f2 ae                	repnz scas %es:(%rdi),%al
  40274a:	48 f7 d1             	not    %rcx
  40274d:	49 89 c8             	mov    %rcx,%r8
  402750:	48 89 f1             	mov    %rsi,%rcx
  402753:	4c 89 f7             	mov    %r14,%rdi
  402756:	f2 ae                	repnz scas %es:(%rdi),%al
  402758:	48 f7 d1             	not    %rcx
  40275b:	4d 8d 44 08 fe       	lea    -0x2(%r8,%rcx,1),%r8
  402760:	48 89 f1             	mov    %rsi,%rcx
  402763:	48 8b 7c 24 08       	mov    0x8(%rsp),%rdi
  402768:	f2 ae                	repnz scas %es:(%rdi),%al
  40276a:	48 89 c8             	mov    %rcx,%rax
  40276d:	48 f7 d0             	not    %rax
  402770:	49 8d 4c 00 ff       	lea    -0x1(%r8,%rax,1),%rcx
  402775:	48 8d 44 52 fd       	lea    -0x3(%rdx,%rdx,2),%rax
  40277a:	48 8d 84 01 80 00 00 	lea    0x80(%rcx,%rax,1),%rax
  402781:	00 
  402782:	48 3d 00 20 00 00    	cmp    $0x2000,%rax
  402788:	76 72                	jbe    4027fc <submitr+0x2a8>
  40278a:	48 b8 45 72 72 6f 72 	movabs $0x52203a726f727245,%rax
  402791:	3a 20 52 
  402794:	48 89 03             	mov    %rax,(%rbx)
  402797:	48 b8 65 73 75 6c 74 	movabs $0x747320746c757365,%rax
  40279e:	20 73 74 
  4027a1:	48 89 43 08          	mov    %rax,0x8(%rbx)
  4027a5:	48 b8 72 69 6e 67 20 	movabs $0x6f6f7420676e6972,%rax
  4027ac:	74 6f 6f 
  4027af:	48 89 43 10          	mov    %rax,0x10(%rbx)
  4027b3:	48 b8 20 6c 61 72 67 	movabs $0x202e656772616c20,%rax
  4027ba:	65 2e 20 
  4027bd:	48 89 43 18          	mov    %rax,0x18(%rbx)
  4027c1:	48 b8 49 6e 63 72 65 	movabs $0x6573616572636e49,%rax
  4027c8:	61 73 65 
  4027cb:	48 89 43 20          	mov    %rax,0x20(%rbx)
  4027cf:	48 b8 20 53 55 42 4d 	movabs $0x5254494d42555320,%rax
  4027d6:	49 54 52 
  4027d9:	48 89 43 28          	mov    %rax,0x28(%rbx)
  4027dd:	48 b8 5f 4d 41 58 42 	movabs $0x46554258414d5f,%rax
  4027e4:	55 46 00 
  4027e7:	48 89 43 30          	mov    %rax,0x30(%rbx)
  4027eb:	89 ef                	mov    %ebp,%edi
  4027ed:	e8 2e e5 ff ff       	callq  400d20 <close@plt>
  4027f2:	b8 ff ff ff ff       	mov    $0xffffffff,%eax
  4027f7:	e9 68 04 00 00       	jmpq   402c64 <submitr+0x710>
  4027fc:	48 8d b4 24 40 40 00 	lea    0x4040(%rsp),%rsi
  402803:	00 
  402804:	b9 00 04 00 00       	mov    $0x400,%ecx
  402809:	b8 00 00 00 00       	mov    $0x0,%eax
  40280e:	48 89 f7             	mov    %rsi,%rdi
  402811:	f3 48 ab             	rep stos %rax,%es:(%rdi)
  402814:	4c 89 ef             	mov    %r13,%rdi
  402817:	e8 2b fc ff ff       	callq  402447 <urlencode>
  40281c:	85 c0                	test   %eax,%eax
  40281e:	0f 89 8a 00 00 00    	jns    4028ae <submitr+0x35a>
  402824:	48 b8 45 72 72 6f 72 	movabs $0x52203a726f727245,%rax
  40282b:	3a 20 52 
  40282e:	48 89 03             	mov    %rax,(%rbx)
  402831:	48 b8 65 73 75 6c 74 	movabs $0x747320746c757365,%rax
  402838:	20 73 74 
  40283b:	48 89 43 08          	mov    %rax,0x8(%rbx)
  40283f:	48 b8 72 69 6e 67 20 	movabs $0x6e6f6320676e6972,%rax
  402846:	63 6f 6e 
  402849:	48 89 43 10          	mov    %rax,0x10(%rbx)
  40284d:	48 b8 74 61 69 6e 73 	movabs $0x6e6120736e696174,%rax
  402854:	20 61 6e 
  402857:	48 89 43 18          	mov    %rax,0x18(%rbx)
  40285b:	48 b8 20 69 6c 6c 65 	movabs $0x6c6167656c6c6920,%rax
  402862:	67 61 6c 
  402865:	48 89 43 20          	mov    %rax,0x20(%rbx)
  402869:	48 b8 20 6f 72 20 75 	movabs $0x72706e7520726f20,%rax
  402870:	6e 70 72 
  402873:	48 89 43 28          	mov    %rax,0x28(%rbx)
  402877:	48 b8 69 6e 74 61 62 	movabs $0x20656c6261746e69,%rax
  40287e:	6c 65 20 
  402881:	48 89 43 30          	mov    %rax,0x30(%rbx)
  402885:	48 b8 63 68 61 72 61 	movabs $0x6574636172616863,%rax
  40288c:	63 74 65 
  40288f:	48 89 43 38          	mov    %rax,0x38(%rbx)
  402893:	66 c7 43 40 72 2e    	movw   $0x2e72,0x40(%rbx)
  402899:	c6 43 42 00          	movb   $0x0,0x42(%rbx)
  40289d:	89 ef                	mov    %ebp,%edi
  40289f:	e8 7c e4 ff ff       	callq  400d20 <close@plt>
  4028a4:	b8 ff ff ff ff       	mov    $0xffffffff,%eax
  4028a9:	e9 b6 03 00 00       	jmpq   402c64 <submitr+0x710>
  4028ae:	4c 8d ac 24 40 20 00 	lea    0x2040(%rsp),%r13
  4028b5:	00 
  4028b6:	41 54                	push   %r12
  4028b8:	48 8d 84 24 48 40 00 	lea    0x4048(%rsp),%rax
  4028bf:	00 
  4028c0:	50                   	push   %rax
  4028c1:	4d 89 f9             	mov    %r15,%r9
  4028c4:	4d 89 f0             	mov    %r14,%r8
  4028c7:	b9 68 37 40 00       	mov    $0x403768,%ecx
  4028cc:	ba 00 20 00 00       	mov    $0x2000,%edx
  4028d1:	be 01 00 00 00       	mov    $0x1,%esi
  4028d6:	4c 89 ef             	mov    %r13,%rdi
  4028d9:	b8 00 00 00 00       	mov    $0x0,%eax
  4028de:	e8 7d e5 ff ff       	callq  400e60 <__sprintf_chk@plt>
  4028e3:	b8 00 00 00 00       	mov    $0x0,%eax
  4028e8:	48 c7 c1 ff ff ff ff 	mov    $0xffffffffffffffff,%rcx
  4028ef:	4c 89 ef             	mov    %r13,%rdi
  4028f2:	f2 ae                	repnz scas %es:(%rdi),%al
  4028f4:	48 f7 d1             	not    %rcx
  4028f7:	48 8d 51 ff          	lea    -0x1(%rcx),%rdx
  4028fb:	4c 89 ee             	mov    %r13,%rsi
  4028fe:	89 ef                	mov    %ebp,%edi
  402900:	e8 b1 f9 ff ff       	callq  4022b6 <rio_writen>
  402905:	48 83 c4 10          	add    $0x10,%rsp
  402909:	48 85 c0             	test   %rax,%rax
  40290c:	79 6e                	jns    40297c <submitr+0x428>
  40290e:	48 b8 45 72 72 6f 72 	movabs $0x43203a726f727245,%rax
  402915:	3a 20 43 
  402918:	48 89 03             	mov    %rax,(%rbx)
  40291b:	48 b8 6c 69 65 6e 74 	movabs $0x6e7520746e65696c,%rax
  402922:	20 75 6e 
  402925:	48 89 43 08          	mov    %rax,0x8(%rbx)
  402929:	48 b8 61 62 6c 65 20 	movabs $0x206f7420656c6261,%rax
  402930:	74 6f 20 
  402933:	48 89 43 10          	mov    %rax,0x10(%rbx)
  402937:	48 b8 77 72 69 74 65 	movabs $0x6f74206574697277,%rax
  40293e:	20 74 6f 
  402941:	48 89 43 18          	mov    %rax,0x18(%rbx)
  402945:	48 b8 20 74 68 65 20 	movabs $0x7365722065687420,%rax
  40294c:	72 65 73 
  40294f:	48 89 43 20          	mov    %rax,0x20(%rbx)
  402953:	48 b8 75 6c 74 20 73 	movabs $0x7672657320746c75,%rax
  40295a:	65 72 76 
  40295d:	48 89 43 28          	mov    %rax,0x28(%rbx)
  402961:	66 c7 43 30 65 72    	movw   $0x7265,0x30(%rbx)
  402967:	c6 43 32 00          	movb   $0x0,0x32(%rbx)
  40296b:	89 ef                	mov    %ebp,%edi
  40296d:	e8 ae e3 ff ff       	callq  400d20 <close@plt>
  402972:	b8 ff ff ff ff       	mov    $0xffffffff,%eax
  402977:	e9 e8 02 00 00       	jmpq   402c64 <submitr+0x710>
  40297c:	89 ee                	mov    %ebp,%esi
  40297e:	48 8d 7c 24 30       	lea    0x30(%rsp),%rdi
  402983:	e8 ee f8 ff ff       	callq  402276 <rio_readinitb>
  402988:	ba 00 20 00 00       	mov    $0x2000,%edx
  40298d:	48 8d b4 24 40 20 00 	lea    0x2040(%rsp),%rsi
  402994:	00 
  402995:	48 8d 7c 24 30       	lea    0x30(%rsp),%rdi
  40299a:	e8 fe f9 ff ff       	callq  40239d <rio_readlineb>
  40299f:	48 85 c0             	test   %rax,%rax
  4029a2:	7f 7d                	jg     402a21 <submitr+0x4cd>
  4029a4:	48 b8 45 72 72 6f 72 	movabs $0x43203a726f727245,%rax
  4029ab:	3a 20 43 
  4029ae:	48 89 03             	mov    %rax,(%rbx)
  4029b1:	48 b8 6c 69 65 6e 74 	movabs $0x6e7520746e65696c,%rax
  4029b8:	20 75 6e 
  4029bb:	48 89 43 08          	mov    %rax,0x8(%rbx)
  4029bf:	48 b8 61 62 6c 65 20 	movabs $0x206f7420656c6261,%rax
  4029c6:	74 6f 20 
  4029c9:	48 89 43 10          	mov    %rax,0x10(%rbx)
  4029cd:	48 b8 72 65 61 64 20 	movabs $0x7269662064616572,%rax
  4029d4:	66 69 72 
  4029d7:	48 89 43 18          	mov    %rax,0x18(%rbx)
  4029db:	48 b8 73 74 20 68 65 	movabs $0x6564616568207473,%rax
  4029e2:	61 64 65 
  4029e5:	48 89 43 20          	mov    %rax,0x20(%rbx)
  4029e9:	48 b8 72 20 66 72 6f 	movabs $0x72206d6f72662072,%rax
  4029f0:	6d 20 72 
  4029f3:	48 89 43 28          	mov    %rax,0x28(%rbx)
  4029f7:	48 b8 65 73 75 6c 74 	movabs $0x657320746c757365,%rax
  4029fe:	20 73 65 
  402a01:	48 89 43 30          	mov    %rax,0x30(%rbx)
  402a05:	c7 43 38 72 76 65 72 	movl   $0x72657672,0x38(%rbx)
  402a0c:	c6 43 3c 00          	movb   $0x0,0x3c(%rbx)
  402a10:	89 ef                	mov    %ebp,%edi
  402a12:	e8 09 e3 ff ff       	callq  400d20 <close@plt>
  402a17:	b8 ff ff ff ff       	mov    $0xffffffff,%eax
  402a1c:	e9 43 02 00 00       	jmpq   402c64 <submitr+0x710>
  402a21:	4c 8d 84 24 40 80 00 	lea    0x8040(%rsp),%r8
  402a28:	00 
  402a29:	48 8d 4c 24 1c       	lea    0x1c(%rsp),%rcx
  402a2e:	48 8d 94 24 40 60 00 	lea    0x6040(%rsp),%rdx
  402a35:	00 
  402a36:	be df 37 40 00       	mov    $0x4037df,%esi
  402a3b:	48 8d bc 24 40 20 00 	lea    0x2040(%rsp),%rdi
  402a42:	00 
  402a43:	b8 00 00 00 00       	mov    $0x0,%eax
  402a48:	e8 73 e3 ff ff       	callq  400dc0 <__isoc99_sscanf@plt>
  402a4d:	e9 95 00 00 00       	jmpq   402ae7 <submitr+0x593>
  402a52:	ba 00 20 00 00       	mov    $0x2000,%edx
  402a57:	48 8d b4 24 40 20 00 	lea    0x2040(%rsp),%rsi
  402a5e:	00 
  402a5f:	48 8d 7c 24 30       	lea    0x30(%rsp),%rdi
  402a64:	e8 34 f9 ff ff       	callq  40239d <rio_readlineb>
  402a69:	48 85 c0             	test   %rax,%rax
  402a6c:	7f 79                	jg     402ae7 <submitr+0x593>
  402a6e:	48 b8 45 72 72 6f 72 	movabs $0x43203a726f727245,%rax
  402a75:	3a 20 43 
  402a78:	48 89 03             	mov    %rax,(%rbx)
  402a7b:	48 b8 6c 69 65 6e 74 	movabs $0x6e7520746e65696c,%rax
  402a82:	20 75 6e 
  402a85:	48 89 43 08          	mov    %rax,0x8(%rbx)
  402a89:	48 b8 61 62 6c 65 20 	movabs $0x206f7420656c6261,%rax
  402a90:	74 6f 20 
  402a93:	48 89 43 10          	mov    %rax,0x10(%rbx)
  402a97:	48 b8 72 65 61 64 20 	movabs $0x6165682064616572,%rax
  402a9e:	68 65 61 
  402aa1:	48 89 43 18          	mov    %rax,0x18(%rbx)
  402aa5:	48 b8 64 65 72 73 20 	movabs $0x6f72662073726564,%rax
  402aac:	66 72 6f 
  402aaf:	48 89 43 20          	mov    %rax,0x20(%rbx)
  402ab3:	48 b8 6d 20 74 68 65 	movabs $0x657220656874206d,%rax
  402aba:	20 72 65 
  402abd:	48 89 43 28          	mov    %rax,0x28(%rbx)
  402ac1:	48 b8 73 75 6c 74 20 	movabs $0x72657320746c7573,%rax
  402ac8:	73 65 72 
  402acb:	48 89 43 30          	mov    %rax,0x30(%rbx)
  402acf:	c7 43 38 76 65 72 00 	movl   $0x726576,0x38(%rbx)
  402ad6:	89 ef                	mov    %ebp,%edi
  402ad8:	e8 43 e2 ff ff       	callq  400d20 <close@plt>
  402add:	b8 ff ff ff ff       	mov    $0xffffffff,%eax
  402ae2:	e9 7d 01 00 00       	jmpq   402c64 <submitr+0x710>
  402ae7:	48 8d b4 24 40 20 00 	lea    0x2040(%rsp),%rsi
  402aee:	00 
  402aef:	bf f6 37 40 00       	mov    $0x4037f6,%edi
  402af4:	b9 03 00 00 00       	mov    $0x3,%ecx
  402af9:	f3 a6                	repz cmpsb %es:(%rdi),%ds:(%rsi)
  402afb:	0f 97 c2             	seta   %dl
  402afe:	0f 92 c0             	setb   %al
  402b01:	38 c2                	cmp    %al,%dl
  402b03:	0f 85 49 ff ff ff    	jne    402a52 <submitr+0x4fe>
  402b09:	ba 00 20 00 00       	mov    $0x2000,%edx
  402b0e:	48 8d b4 24 40 20 00 	lea    0x2040(%rsp),%rsi
  402b15:	00 
  402b16:	48 8d 7c 24 30       	lea    0x30(%rsp),%rdi
  402b1b:	e8 7d f8 ff ff       	callq  40239d <rio_readlineb>
  402b20:	48 85 c0             	test   %rax,%rax
  402b23:	0f 8f 83 00 00 00    	jg     402bac <submitr+0x658>
  402b29:	48 b8 45 72 72 6f 72 	movabs $0x43203a726f727245,%rax
  402b30:	3a 20 43 
  402b33:	48 89 03             	mov    %rax,(%rbx)
  402b36:	48 b8 6c 69 65 6e 74 	movabs $0x6e7520746e65696c,%rax
  402b3d:	20 75 6e 
  402b40:	48 89 43 08          	mov    %rax,0x8(%rbx)
  402b44:	48 b8 61 62 6c 65 20 	movabs $0x206f7420656c6261,%rax
  402b4b:	74 6f 20 
  402b4e:	48 89 43 10          	mov    %rax,0x10(%rbx)
  402b52:	48 b8 72 65 61 64 20 	movabs $0x6174732064616572,%rax
  402b59:	73 74 61 
  402b5c:	48 89 43 18          	mov    %rax,0x18(%rbx)
  402b60:	48 b8 74 75 73 20 6d 	movabs $0x7373656d20737574,%rax
  402b67:	65 73 73 
  402b6a:	48 89 43 20          	mov    %rax,0x20(%rbx)
  402b6e:	48 b8 61 67 65 20 66 	movabs $0x6d6f726620656761,%rax
  402b75:	72 6f 6d 
  402b78:	48 89 43 28          	mov    %rax,0x28(%rbx)
  402b7c:	48 b8 20 72 65 73 75 	movabs $0x20746c7573657220,%rax
  402b83:	6c 74 20 
  402b86:	48 89 43 30          	mov    %rax,0x30(%rbx)
  402b8a:	c7 43 38 73 65 72 76 	movl   $0x76726573,0x38(%rbx)
  402b91:	66 c7 43 3c 65 72    	movw   $0x7265,0x3c(%rbx)
  402b97:	c6 43 3e 00          	movb   $0x0,0x3e(%rbx)
  402b9b:	89 ef                	mov    %ebp,%edi
  402b9d:	e8 7e e1 ff ff       	callq  400d20 <close@plt>
  402ba2:	b8 ff ff ff ff       	mov    $0xffffffff,%eax
  402ba7:	e9 b8 00 00 00       	jmpq   402c64 <submitr+0x710>
  402bac:	44 8b 44 24 1c       	mov    0x1c(%rsp),%r8d
  402bb1:	41 81 f8 c8 00 00 00 	cmp    $0xc8,%r8d
  402bb8:	74 34                	je     402bee <submitr+0x69a>
  402bba:	4c 8d 8c 24 40 80 00 	lea    0x8040(%rsp),%r9
  402bc1:	00 
  402bc2:	b9 a8 37 40 00       	mov    $0x4037a8,%ecx
  402bc7:	48 c7 c2 ff ff ff ff 	mov    $0xffffffffffffffff,%rdx
  402bce:	be 01 00 00 00       	mov    $0x1,%esi
  402bd3:	48 89 df             	mov    %rbx,%rdi
  402bd6:	b8 00 00 00 00       	mov    $0x0,%eax
  402bdb:	e8 80 e2 ff ff       	callq  400e60 <__sprintf_chk@plt>
  402be0:	89 ef                	mov    %ebp,%edi
  402be2:	e8 39 e1 ff ff       	callq  400d20 <close@plt>
  402be7:	b8 ff ff ff ff       	mov    $0xffffffff,%eax
  402bec:	eb 76                	jmp    402c64 <submitr+0x710>
  402bee:	48 8d b4 24 40 20 00 	lea    0x2040(%rsp),%rsi
  402bf5:	00 
  402bf6:	48 89 df             	mov    %rbx,%rdi
  402bf9:	e8 b2 e0 ff ff       	callq  400cb0 <strcpy@plt>
  402bfe:	89 ef                	mov    %ebp,%edi
  402c00:	e8 1b e1 ff ff       	callq  400d20 <close@plt>
  402c05:	bf f0 37 40 00       	mov    $0x4037f0,%edi
  402c0a:	b9 04 00 00 00       	mov    $0x4,%ecx
  402c0f:	48 89 de             	mov    %rbx,%rsi
  402c12:	f3 a6                	repz cmpsb %es:(%rdi),%ds:(%rsi)
  402c14:	0f 97 c0             	seta   %al
  402c17:	0f 92 c2             	setb   %dl
  402c1a:	29 d0                	sub    %edx,%eax
  402c1c:	0f be c0             	movsbl %al,%eax
  402c1f:	85 c0                	test   %eax,%eax
  402c21:	74 41                	je     402c64 <submitr+0x710>
  402c23:	bf f4 37 40 00       	mov    $0x4037f4,%edi
  402c28:	b9 05 00 00 00       	mov    $0x5,%ecx
  402c2d:	48 89 de             	mov    %rbx,%rsi
  402c30:	f3 a6                	repz cmpsb %es:(%rdi),%ds:(%rsi)
  402c32:	0f 97 c0             	seta   %al
  402c35:	0f 92 c2             	setb   %dl
  402c38:	29 d0                	sub    %edx,%eax
  402c3a:	0f be c0             	movsbl %al,%eax
  402c3d:	85 c0                	test   %eax,%eax
  402c3f:	74 23                	je     402c64 <submitr+0x710>
  402c41:	bf f9 37 40 00       	mov    $0x4037f9,%edi
  402c46:	b9 03 00 00 00       	mov    $0x3,%ecx
  402c4b:	48 89 de             	mov    %rbx,%rsi
  402c4e:	f3 a6                	repz cmpsb %es:(%rdi),%ds:(%rsi)
  402c50:	0f 97 c0             	seta   %al
  402c53:	0f 92 c2             	setb   %dl
  402c56:	29 d0                	sub    %edx,%eax
  402c58:	0f be c0             	movsbl %al,%eax
  402c5b:	85 c0                	test   %eax,%eax
  402c5d:	74 05                	je     402c64 <submitr+0x710>
  402c5f:	b8 ff ff ff ff       	mov    $0xffffffff,%eax
  402c64:	48 8b 9c 24 48 a0 00 	mov    0xa048(%rsp),%rbx
  402c6b:	00 
  402c6c:	64 48 33 1c 25 28 00 	xor    %fs:0x28,%rbx
  402c73:	00 00 
  402c75:	74 05                	je     402c7c <submitr+0x728>
  402c77:	e8 64 e0 ff ff       	callq  400ce0 <__stack_chk_fail@plt>
  402c7c:	48 81 c4 58 a0 00 00 	add    $0xa058,%rsp
  402c83:	5b                   	pop    %rbx
  402c84:	5d                   	pop    %rbp
  402c85:	41 5c                	pop    %r12
  402c87:	41 5d                	pop    %r13
  402c89:	41 5e                	pop    %r14
  402c8b:	41 5f                	pop    %r15
  402c8d:	c3                   	retq   

0000000000402c8e <init_timeout>:
  402c8e:	85 ff                	test   %edi,%edi
  402c90:	74 23                	je     402cb5 <init_timeout+0x27>
  402c92:	53                   	push   %rbx
  402c93:	89 fb                	mov    %edi,%ebx
  402c95:	85 ff                	test   %edi,%edi
  402c97:	79 05                	jns    402c9e <init_timeout+0x10>
  402c99:	bb 00 00 00 00       	mov    $0x0,%ebx
  402c9e:	be 88 22 40 00       	mov    $0x402288,%esi
  402ca3:	bf 0e 00 00 00       	mov    $0xe,%edi
  402ca8:	e8 93 e0 ff ff       	callq  400d40 <signal@plt>
  402cad:	89 df                	mov    %ebx,%edi
  402caf:	e8 5c e0 ff ff       	callq  400d10 <alarm@plt>
  402cb4:	5b                   	pop    %rbx
  402cb5:	f3 c3                	repz retq 

0000000000402cb7 <init_driver>:
  402cb7:	55                   	push   %rbp
  402cb8:	53                   	push   %rbx
  402cb9:	48 83 ec 28          	sub    $0x28,%rsp
  402cbd:	48 89 fd             	mov    %rdi,%rbp
  402cc0:	64 48 8b 04 25 28 00 	mov    %fs:0x28,%rax
  402cc7:	00 00 
  402cc9:	48 89 44 24 18       	mov    %rax,0x18(%rsp)
  402cce:	31 c0                	xor    %eax,%eax
  402cd0:	be 01 00 00 00       	mov    $0x1,%esi
  402cd5:	bf 0d 00 00 00       	mov    $0xd,%edi
  402cda:	e8 61 e0 ff ff       	callq  400d40 <signal@plt>
  402cdf:	be 01 00 00 00       	mov    $0x1,%esi
  402ce4:	bf 1d 00 00 00       	mov    $0x1d,%edi
  402ce9:	e8 52 e0 ff ff       	callq  400d40 <signal@plt>
  402cee:	be 01 00 00 00       	mov    $0x1,%esi
  402cf3:	bf 1d 00 00 00       	mov    $0x1d,%edi
  402cf8:	e8 43 e0 ff ff       	callq  400d40 <signal@plt>
  402cfd:	ba 00 00 00 00       	mov    $0x0,%edx
  402d02:	be 01 00 00 00       	mov    $0x1,%esi
  402d07:	bf 02 00 00 00       	mov    $0x2,%edi
  402d0c:	e8 5f e1 ff ff       	callq  400e70 <socket@plt>
  402d11:	85 c0                	test   %eax,%eax
  402d13:	79 4f                	jns    402d64 <init_driver+0xad>
  402d15:	48 b8 45 72 72 6f 72 	movabs $0x43203a726f727245,%rax
  402d1c:	3a 20 43 
  402d1f:	48 89 45 00          	mov    %rax,0x0(%rbp)
  402d23:	48 b8 6c 69 65 6e 74 	movabs $0x6e7520746e65696c,%rax
  402d2a:	20 75 6e 
  402d2d:	48 89 45 08          	mov    %rax,0x8(%rbp)
  402d31:	48 b8 61 62 6c 65 20 	movabs $0x206f7420656c6261,%rax
  402d38:	74 6f 20 
  402d3b:	48 89 45 10          	mov    %rax,0x10(%rbp)
  402d3f:	48 b8 63 72 65 61 74 	movabs $0x7320657461657263,%rax
  402d46:	65 20 73 
  402d49:	48 89 45 18          	mov    %rax,0x18(%rbp)
  402d4d:	c7 45 20 6f 63 6b 65 	movl   $0x656b636f,0x20(%rbp)
  402d54:	66 c7 45 24 74 00    	movw   $0x74,0x24(%rbp)
  402d5a:	b8 ff ff ff ff       	mov    $0xffffffff,%eax
  402d5f:	e9 2a 01 00 00       	jmpq   402e8e <init_driver+0x1d7>
  402d64:	89 c3                	mov    %eax,%ebx
  402d66:	bf 0b 33 40 00       	mov    $0x40330b,%edi
  402d6b:	e8 e0 df ff ff       	callq  400d50 <gethostbyname@plt>
  402d70:	48 85 c0             	test   %rax,%rax
  402d73:	75 68                	jne    402ddd <init_driver+0x126>
  402d75:	48 b8 45 72 72 6f 72 	movabs $0x44203a726f727245,%rax
  402d7c:	3a 20 44 
  402d7f:	48 89 45 00          	mov    %rax,0x0(%rbp)
  402d83:	48 b8 4e 53 20 69 73 	movabs $0x6e7520736920534e,%rax
  402d8a:	20 75 6e 
  402d8d:	48 89 45 08          	mov    %rax,0x8(%rbp)
  402d91:	48 b8 61 62 6c 65 20 	movabs $0x206f7420656c6261,%rax
  402d98:	74 6f 20 
  402d9b:	48 89 45 10          	mov    %rax,0x10(%rbp)
  402d9f:	48 b8 72 65 73 6f 6c 	movabs $0x2065766c6f736572,%rax
  402da6:	76 65 20 
  402da9:	48 89 45 18          	mov    %rax,0x18(%rbp)
  402dad:	48 b8 73 65 72 76 65 	movabs $0x6120726576726573,%rax
  402db4:	72 20 61 
  402db7:	48 89 45 20          	mov    %rax,0x20(%rbp)
  402dbb:	c7 45 28 64 64 72 65 	movl   $0x65726464,0x28(%rbp)
  402dc2:	66 c7 45 2c 73 73    	movw   $0x7373,0x2c(%rbp)
  402dc8:	c6 45 2e 00          	movb   $0x0,0x2e(%rbp)
  402dcc:	89 df                	mov    %ebx,%edi
  402dce:	e8 4d df ff ff       	callq  400d20 <close@plt>
  402dd3:	b8 ff ff ff ff       	mov    $0xffffffff,%eax
  402dd8:	e9 b1 00 00 00       	jmpq   402e8e <init_driver+0x1d7>
  402ddd:	48 c7 04 24 00 00 00 	movq   $0x0,(%rsp)
  402de4:	00 
  402de5:	48 c7 44 24 08 00 00 	movq   $0x0,0x8(%rsp)
  402dec:	00 00 
  402dee:	66 c7 04 24 02 00    	movw   $0x2,(%rsp)
  402df4:	48 63 50 14          	movslq 0x14(%rax),%rdx
  402df8:	48 8b 40 18          	mov    0x18(%rax),%rax
  402dfc:	48 8b 30             	mov    (%rax),%rsi
  402dff:	48 8d 7c 24 04       	lea    0x4(%rsp),%rdi
  402e04:	b9 0c 00 00 00       	mov    $0xc,%ecx
  402e09:	e8 52 df ff ff       	callq  400d60 <__memmove_chk@plt>
  402e0e:	66 c7 44 24 02 3b 70 	movw   $0x703b,0x2(%rsp)
  402e15:	ba 10 00 00 00       	mov    $0x10,%edx
  402e1a:	48 89 e6             	mov    %rsp,%rsi
  402e1d:	89 df                	mov    %ebx,%edi
  402e1f:	e8 1c e0 ff ff       	callq  400e40 <connect@plt>
  402e24:	85 c0                	test   %eax,%eax
  402e26:	79 50                	jns    402e78 <init_driver+0x1c1>
  402e28:	48 b8 45 72 72 6f 72 	movabs $0x55203a726f727245,%rax
  402e2f:	3a 20 55 
  402e32:	48 89 45 00          	mov    %rax,0x0(%rbp)
  402e36:	48 b8 6e 61 62 6c 65 	movabs $0x6f7420656c62616e,%rax
  402e3d:	20 74 6f 
  402e40:	48 89 45 08          	mov    %rax,0x8(%rbp)
  402e44:	48 b8 20 63 6f 6e 6e 	movabs $0x7463656e6e6f6320,%rax
  402e4b:	65 63 74 
  402e4e:	48 89 45 10          	mov    %rax,0x10(%rbp)
  402e52:	48 b8 20 74 6f 20 73 	movabs $0x76726573206f7420,%rax
  402e59:	65 72 76 
  402e5c:	48 89 45 18          	mov    %rax,0x18(%rbp)
  402e60:	66 c7 45 20 65 72    	movw   $0x7265,0x20(%rbp)
  402e66:	c6 45 22 00          	movb   $0x0,0x22(%rbp)
  402e6a:	89 df                	mov    %ebx,%edi
  402e6c:	e8 af de ff ff       	callq  400d20 <close@plt>
  402e71:	b8 ff ff ff ff       	mov    $0xffffffff,%eax
  402e76:	eb 16                	jmp    402e8e <init_driver+0x1d7>
  402e78:	89 df                	mov    %ebx,%edi
  402e7a:	e8 a1 de ff ff       	callq  400d20 <close@plt>
  402e7f:	66 c7 45 00 4f 4b    	movw   $0x4b4f,0x0(%rbp)
  402e85:	c6 45 02 00          	movb   $0x0,0x2(%rbp)
  402e89:	b8 00 00 00 00       	mov    $0x0,%eax
  402e8e:	48 8b 4c 24 18       	mov    0x18(%rsp),%rcx
  402e93:	64 48 33 0c 25 28 00 	xor    %fs:0x28,%rcx
  402e9a:	00 00 
  402e9c:	74 05                	je     402ea3 <init_driver+0x1ec>
  402e9e:	e8 3d de ff ff       	callq  400ce0 <__stack_chk_fail@plt>
  402ea3:	48 83 c4 28          	add    $0x28,%rsp
  402ea7:	5b                   	pop    %rbx
  402ea8:	5d                   	pop    %rbp
  402ea9:	c3                   	retq   

0000000000402eaa <driver_post>:
  402eaa:	53                   	push   %rbx
  402eab:	4c 89 cb             	mov    %r9,%rbx
  402eae:	45 85 c0             	test   %r8d,%r8d
  402eb1:	74 27                	je     402eda <driver_post+0x30>
  402eb3:	48 89 ca             	mov    %rcx,%rdx
  402eb6:	be fc 37 40 00       	mov    $0x4037fc,%esi
  402ebb:	bf 01 00 00 00       	mov    $0x1,%edi
  402ec0:	b8 00 00 00 00       	mov    $0x0,%eax
  402ec5:	e8 16 df ff ff       	callq  400de0 <__printf_chk@plt>
  402eca:	66 c7 03 4f 4b       	movw   $0x4b4f,(%rbx)
  402ecf:	c6 43 02 00          	movb   $0x0,0x2(%rbx)
  402ed3:	b8 00 00 00 00       	mov    $0x0,%eax
  402ed8:	eb 3f                	jmp    402f19 <driver_post+0x6f>
  402eda:	48 85 ff             	test   %rdi,%rdi
  402edd:	74 2c                	je     402f0b <driver_post+0x61>
  402edf:	80 3f 00             	cmpb   $0x0,(%rdi)
  402ee2:	74 27                	je     402f0b <driver_post+0x61>
  402ee4:	48 83 ec 08          	sub    $0x8,%rsp
  402ee8:	41 51                	push   %r9
  402eea:	49 89 c9             	mov    %rcx,%r9
  402eed:	49 89 d0             	mov    %rdx,%r8
  402ef0:	48 89 f9             	mov    %rdi,%rcx
  402ef3:	48 89 f2             	mov    %rsi,%rdx
  402ef6:	be 70 3b 00 00       	mov    $0x3b70,%esi
  402efb:	bf 0b 33 40 00       	mov    $0x40330b,%edi
  402f00:	e8 4f f6 ff ff       	callq  402554 <submitr>
  402f05:	48 83 c4 10          	add    $0x10,%rsp
  402f09:	eb 0e                	jmp    402f19 <driver_post+0x6f>
  402f0b:	66 c7 03 4f 4b       	movw   $0x4b4f,(%rbx)
  402f10:	c6 43 02 00          	movb   $0x0,0x2(%rbx)
  402f14:	b8 00 00 00 00       	mov    $0x0,%eax
  402f19:	5b                   	pop    %rbx
  402f1a:	c3                   	retq   

0000000000402f1b <check>:
  402f1b:	89 f8                	mov    %edi,%eax
  402f1d:	c1 e8 1c             	shr    $0x1c,%eax
  402f20:	85 c0                	test   %eax,%eax
  402f22:	74 1d                	je     402f41 <check+0x26>
  402f24:	b9 00 00 00 00       	mov    $0x0,%ecx
  402f29:	eb 0b                	jmp    402f36 <check+0x1b>
  402f2b:	89 f8                	mov    %edi,%eax
  402f2d:	d3 e8                	shr    %cl,%eax
  402f2f:	3c 0a                	cmp    $0xa,%al
  402f31:	74 14                	je     402f47 <check+0x2c>
  402f33:	83 c1 08             	add    $0x8,%ecx
  402f36:	83 f9 1f             	cmp    $0x1f,%ecx
  402f39:	7e f0                	jle    402f2b <check+0x10>
  402f3b:	b8 01 00 00 00       	mov    $0x1,%eax
  402f40:	c3                   	retq   
  402f41:	b8 00 00 00 00       	mov    $0x0,%eax
  402f46:	c3                   	retq   
  402f47:	b8 00 00 00 00       	mov    $0x0,%eax
  402f4c:	c3                   	retq   

0000000000402f4d <gencookie>:
  402f4d:	53                   	push   %rbx
  402f4e:	83 c7 01             	add    $0x1,%edi
  402f51:	e8 3a dd ff ff       	callq  400c90 <srandom@plt>
  402f56:	e8 45 de ff ff       	callq  400da0 <random@plt>
  402f5b:	89 c3                	mov    %eax,%ebx
  402f5d:	89 c7                	mov    %eax,%edi
  402f5f:	e8 b7 ff ff ff       	callq  402f1b <check>
  402f64:	85 c0                	test   %eax,%eax
  402f66:	74 ee                	je     402f56 <gencookie+0x9>
  402f68:	89 d8                	mov    %ebx,%eax
  402f6a:	5b                   	pop    %rbx
  402f6b:	c3                   	retq   
  402f6c:	0f 1f 40 00          	nopl   0x0(%rax)

0000000000402f70 <__libc_csu_init>:
  402f70:	41 57                	push   %r15
  402f72:	41 56                	push   %r14
  402f74:	49 89 d7             	mov    %rdx,%r15
  402f77:	41 55                	push   %r13
  402f79:	41 54                	push   %r12
  402f7b:	4c 8d 25 86 1e 20 00 	lea    0x201e86(%rip),%r12        # 604e08 <__frame_dummy_init_array_entry>
  402f82:	55                   	push   %rbp
  402f83:	48 8d 2d 86 1e 20 00 	lea    0x201e86(%rip),%rbp        # 604e10 <__init_array_end>
  402f8a:	53                   	push   %rbx
  402f8b:	41 89 fd             	mov    %edi,%r13d
  402f8e:	49 89 f6             	mov    %rsi,%r14
  402f91:	4c 29 e5             	sub    %r12,%rbp
  402f94:	48 83 ec 08          	sub    $0x8,%rsp
  402f98:	48 c1 fd 03          	sar    $0x3,%rbp
  402f9c:	e8 a7 dc ff ff       	callq  400c48 <_init>
  402fa1:	48 85 ed             	test   %rbp,%rbp
  402fa4:	74 20                	je     402fc6 <__libc_csu_init+0x56>
  402fa6:	31 db                	xor    %ebx,%ebx
  402fa8:	0f 1f 84 00 00 00 00 	nopl   0x0(%rax,%rax,1)
  402faf:	00 
  402fb0:	4c 89 fa             	mov    %r15,%rdx
  402fb3:	4c 89 f6             	mov    %r14,%rsi
  402fb6:	44 89 ef             	mov    %r13d,%edi
  402fb9:	41 ff 14 dc          	callq  *(%r12,%rbx,8)
  402fbd:	48 83 c3 01          	add    $0x1,%rbx
  402fc1:	48 39 dd             	cmp    %rbx,%rbp
  402fc4:	75 ea                	jne    402fb0 <__libc_csu_init+0x40>
  402fc6:	48 83 c4 08          	add    $0x8,%rsp
  402fca:	5b                   	pop    %rbx
  402fcb:	5d                   	pop    %rbp
  402fcc:	41 5c                	pop    %r12
  402fce:	41 5d                	pop    %r13
  402fd0:	41 5e                	pop    %r14
  402fd2:	41 5f                	pop    %r15
  402fd4:	c3                   	retq   
  402fd5:	90                   	nop
  402fd6:	66 2e 0f 1f 84 00 00 	nopw   %cs:0x0(%rax,%rax,1)
  402fdd:	00 00 00 

0000000000402fe0 <__libc_csu_fini>:
  402fe0:	f3 c3                	repz retq 

Disassembly of section .fini:

0000000000402fe4 <_fini>:
  402fe4:	48 83 ec 08          	sub    $0x8,%rsp
  402fe8:	48 83 c4 08          	add    $0x8,%rsp
  402fec:	c3                   	retq   
